
build/init:     file format elf64-littleaarch64


Disassembly of section .text:

0000000000200000 <_RNvCs1Y7DaGC1cwg_7___rustc17rust_begin_unwind>:
  200000:	d10083ff 	sub	sp, sp, #0x20
  200004:	f9000bfe 	str	x30, [sp, #16]
  200008:	f90003e0 	str	x0, [sp]
  20000c:	d0000000 	adrp	x0, 202000 <_ZN4core3str5count14do_count_chars17hae3c2a457455db39E+0x3bc>
  200010:	9113c000 	add	x0, x0, #0x4f0
  200014:	52800548 	mov	w8, #0x2a                  	// #42
  200018:	2a0803e1 	mov	w1, w8
  20001c:	9400008e 	bl	200254 <_ZN4core3fmt9Arguments17from_str_nonconst17hbc6173fbd0bda6ffE>
  200020:	940000b0 	bl	2002e0 <_ZN4user6stdlib8syscalls6_print17hd61b1a874d7e7597E>
  200024:	39003be0 	strb	w0, [sp, #14]
  200028:	39403be8 	ldrb	w8, [sp, #14]
  20002c:	36000188 	tbz	w8, #0, 20005c <_RNvCs1Y7DaGC1cwg_7___rustc17rust_begin_unwind+0x5c>
  200030:	14000001 	b	200034 <_RNvCs1Y7DaGC1cwg_7___rustc17rust_begin_unwind+0x34>
  200034:	f0000000 	adrp	x0, 203000 <_ZN4core9panicking9panic_fmt17hf8c9ba6c2299d6edE+0xb38>
  200038:	910f8000 	add	x0, x0, #0x3e0
  20003c:	f0000003 	adrp	x3, 203000 <_ZN4core9panicking9panic_fmt17hf8c9ba6c2299d6edE+0xb38>
  200040:	910f0063 	add	x3, x3, #0x3c0
  200044:	f0000004 	adrp	x4, 203000 <_ZN4core9panicking9panic_fmt17hf8c9ba6c2299d6edE+0xb38>
  200048:	910ea084 	add	x4, x4, #0x3a8
  20004c:	52800568 	mov	w8, #0x2b                  	// #43
  200050:	2a0803e1 	mov	w1, w8
  200054:	91003fe2 	add	x2, sp, #0xf
  200058:	940008e3 	bl	2023e4 <_ZN4core6result13unwrap_failed17h89589bbb6ce8ba23E>
  20005c:	14000001 	b	200060 <_RNvCs1Y7DaGC1cwg_7___rustc17rust_begin_unwind+0x60>
  200060:	14000000 	b	200060 <_RNvCs1Y7DaGC1cwg_7___rustc17rust_begin_unwind+0x60>

0000000000200064 <_start>:
  200064:	d101c3ff 	sub	sp, sp, #0x70
  200068:	f90033fe 	str	x30, [sp, #96]
  20006c:	f0000000 	adrp	x0, 203000 <_ZN4core9panicking9panic_fmt17hf8c9ba6c2299d6edE+0xb38>
  200070:	91102c00 	add	x0, x0, #0x40b
  200074:	52800628 	mov	w8, #0x31                  	// #49
  200078:	2a0803e1 	mov	w1, w8
  20007c:	94000076 	bl	200254 <_ZN4core3fmt9Arguments17from_str_nonconst17hbc6173fbd0bda6ffE>
  200080:	94000098 	bl	2002e0 <_ZN4user6stdlib8syscalls6_print17hd61b1a874d7e7597E>
  200084:	39017be0 	strb	w0, [sp, #94]
  200088:	39417be8 	ldrb	w8, [sp, #94]
  20008c:	36000188 	tbz	w8, #0, 2000bc <_start+0x58>
  200090:	14000001 	b	200094 <_start+0x30>
  200094:	f0000000 	adrp	x0, 203000 <_ZN4core9panicking9panic_fmt17hf8c9ba6c2299d6edE+0xb38>
  200098:	910f8000 	add	x0, x0, #0x3e0
  20009c:	f0000003 	adrp	x3, 203000 <_ZN4core9panicking9panic_fmt17hf8c9ba6c2299d6edE+0xb38>
  2000a0:	910f0063 	add	x3, x3, #0x3c0
  2000a4:	f0000004 	adrp	x4, 203000 <_ZN4core9panicking9panic_fmt17hf8c9ba6c2299d6edE+0xb38>
  2000a8:	91110084 	add	x4, x4, #0x440
  2000ac:	52800568 	mov	w8, #0x2b                  	// #43
  2000b0:	2a0803e1 	mov	w1, w8
  2000b4:	91017fe2 	add	x2, sp, #0x5f
  2000b8:	940008cb 	bl	2023e4 <_ZN4core6result13unwrap_failed17h89589bbb6ce8ba23E>
  2000bc:	52800028 	mov	w8, #0x1                   	// #1
  2000c0:	b90007e8 	str	w8, [sp, #4]
  2000c4:	910013e0 	add	x0, sp, #0x4
  2000c8:	f90027e0 	str	x0, [sp, #72]
  2000cc:	910063e8 	add	x8, sp, #0x18
  2000d0:	94000054 	bl	200220 <_ZN4core3fmt2rt8Argument11new_display17h290c67c80782bcf0E>
  2000d4:	f9400fe8 	ldr	x8, [sp, #24]
  2000d8:	f94013e9 	ldr	x9, [sp, #32]
  2000dc:	f9000be9 	str	x9, [sp, #16]
  2000e0:	f90007e8 	str	x8, [sp, #8]
  2000e4:	d0000000 	adrp	x0, 202000 <_ZN4core3str5count14do_count_chars17hae3c2a457455db39E+0x3bc>
  2000e8:	9114a800 	add	x0, x0, #0x52a
  2000ec:	910023e1 	add	x1, sp, #0x8
  2000f0:	94000077 	bl	2002cc <_ZN4core3fmt9Arguments3new17h409afbde1f0fba10E>
  2000f4:	9400007b 	bl	2002e0 <_ZN4user6stdlib8syscalls6_print17hd61b1a874d7e7597E>
  2000f8:	390173e0 	strb	w0, [sp, #92]
  2000fc:	394173e8 	ldrb	w8, [sp, #92]
  200100:	36000188 	tbz	w8, #0, 200130 <_start+0xcc>
  200104:	14000001 	b	200108 <_start+0xa4>
  200108:	f0000000 	adrp	x0, 203000 <_ZN4core9panicking9panic_fmt17hf8c9ba6c2299d6edE+0xb38>
  20010c:	910f8000 	add	x0, x0, #0x3e0
  200110:	f0000003 	adrp	x3, 203000 <_ZN4core9panicking9panic_fmt17hf8c9ba6c2299d6edE+0xb38>
  200114:	910f0063 	add	x3, x3, #0x3c0
  200118:	f0000004 	adrp	x4, 203000 <_ZN4core9panicking9panic_fmt17hf8c9ba6c2299d6edE+0xb38>
  20011c:	91116084 	add	x4, x4, #0x458
  200120:	52800568 	mov	w8, #0x2b                  	// #43
  200124:	2a0803e1 	mov	w1, w8
  200128:	910177e2 	add	x2, sp, #0x5d
  20012c:	940008ae 	bl	2023e4 <_ZN4core6result13unwrap_failed17h89589bbb6ce8ba23E>
  200130:	b94007e8 	ldr	w8, [sp, #4]
  200134:	31000509 	adds	w9, w8, #0x1
  200138:	1a9f77e8 	cset	w8, vs
  20013c:	b90003e9 	str	w9, [sp]
  200140:	37000688 	tbnz	w8, #0, 200210 <_start+0x1ac>
  200144:	14000001 	b	200148 <_start+0xe4>
  200148:	b94003e8 	ldr	w8, [sp]
  20014c:	b90007e8 	str	w8, [sp, #4]
  200150:	910013e0 	add	x0, sp, #0x4
  200154:	f9002be0 	str	x0, [sp, #80]
  200158:	9100e3e8 	add	x8, sp, #0x38
  20015c:	94000031 	bl	200220 <_ZN4core3fmt2rt8Argument11new_display17h290c67c80782bcf0E>
  200160:	f9401fe8 	ldr	x8, [sp, #56]
  200164:	f94023e9 	ldr	x9, [sp, #64]
  200168:	f9001be9 	str	x9, [sp, #48]
  20016c:	f90017e8 	str	x8, [sp, #40]
  200170:	d0000000 	adrp	x0, 202000 <_ZN4core3str5count14do_count_chars17hae3c2a457455db39E+0x3bc>
  200174:	9114a800 	add	x0, x0, #0x52a
  200178:	9100a3e1 	add	x1, sp, #0x28
  20017c:	94000054 	bl	2002cc <_ZN4core3fmt9Arguments3new17h409afbde1f0fba10E>
  200180:	94000058 	bl	2002e0 <_ZN4user6stdlib8syscalls6_print17hd61b1a874d7e7597E>
  200184:	39016be0 	strb	w0, [sp, #90]
  200188:	39416be8 	ldrb	w8, [sp, #90]
  20018c:	36000188 	tbz	w8, #0, 2001bc <_start+0x158>
  200190:	14000001 	b	200194 <_start+0x130>
  200194:	f0000000 	adrp	x0, 203000 <_ZN4core9panicking9panic_fmt17hf8c9ba6c2299d6edE+0xb38>
  200198:	910f8000 	add	x0, x0, #0x3e0
  20019c:	f0000003 	adrp	x3, 203000 <_ZN4core9panicking9panic_fmt17hf8c9ba6c2299d6edE+0xb38>
  2001a0:	910f0063 	add	x3, x3, #0x3c0
  2001a4:	f0000004 	adrp	x4, 203000 <_ZN4core9panicking9panic_fmt17hf8c9ba6c2299d6edE+0xb38>
  2001a8:	91122084 	add	x4, x4, #0x488
  2001ac:	52800568 	mov	w8, #0x2b                  	// #43
  2001b0:	2a0803e1 	mov	w1, w8
  2001b4:	91016fe2 	add	x2, sp, #0x5b
  2001b8:	9400088b 	bl	2023e4 <_ZN4core6result13unwrap_failed17h89589bbb6ce8ba23E>
  2001bc:	f0000000 	adrp	x0, 203000 <_ZN4core9panicking9panic_fmt17hf8c9ba6c2299d6edE+0xb38>
  2001c0:	91128000 	add	x0, x0, #0x4a0
  2001c4:	52800728 	mov	w8, #0x39                  	// #57
  2001c8:	2a0803e1 	mov	w1, w8
  2001cc:	94000022 	bl	200254 <_ZN4core3fmt9Arguments17from_str_nonconst17hbc6173fbd0bda6ffE>
  2001d0:	94000044 	bl	2002e0 <_ZN4user6stdlib8syscalls6_print17hd61b1a874d7e7597E>
  2001d4:	390163e0 	strb	w0, [sp, #88]
  2001d8:	394163e8 	ldrb	w8, [sp, #88]
  2001dc:	36000188 	tbz	w8, #0, 20020c <_start+0x1a8>
  2001e0:	14000001 	b	2001e4 <_start+0x180>
  2001e4:	f0000000 	adrp	x0, 203000 <_ZN4core9panicking9panic_fmt17hf8c9ba6c2299d6edE+0xb38>
  2001e8:	910f8000 	add	x0, x0, #0x3e0
  2001ec:	f0000003 	adrp	x3, 203000 <_ZN4core9panicking9panic_fmt17hf8c9ba6c2299d6edE+0xb38>
  2001f0:	910f0063 	add	x3, x3, #0x3c0
  2001f4:	f0000004 	adrp	x4, 203000 <_ZN4core9panicking9panic_fmt17hf8c9ba6c2299d6edE+0xb38>
  2001f8:	91138084 	add	x4, x4, #0x4e0
  2001fc:	52800568 	mov	w8, #0x2b                  	// #43
  200200:	2a0803e1 	mov	w1, w8
  200204:	910167e2 	add	x2, sp, #0x59
  200208:	94000877 	bl	2023e4 <_ZN4core6result13unwrap_failed17h89589bbb6ce8ba23E>
  20020c:	14000004 	b	20021c <_start+0x1b8>
  200210:	f0000000 	adrp	x0, 203000 <_ZN4core9panicking9panic_fmt17hf8c9ba6c2299d6edE+0xb38>
  200214:	9111c000 	add	x0, x0, #0x470
  200218:	9400088d 	bl	20244c <_ZN4core9panicking11panic_const24panic_const_add_overflow17h14182d22b10058ceE>
  20021c:	14000000 	b	20021c <_start+0x1b8>

0000000000200220 <_ZN4core3fmt2rt8Argument11new_display17h290c67c80782bcf0E>:
  200220:	d10083ff 	sub	sp, sp, #0x20
  200224:	aa0803e9 	mov	x9, x8
  200228:	f9000fe0 	str	x0, [sp, #24]
  20022c:	f90007e0 	str	x0, [sp, #8]
  200230:	90000008 	adrp	x8, 200000 <_RNvCs1Y7DaGC1cwg_7___rustc17rust_begin_unwind>
  200234:	913fc108 	add	x8, x8, #0xff0
  200238:	f9000be8 	str	x8, [sp, #16]
  20023c:	f94007e8 	ldr	x8, [sp, #8]
  200240:	f9400bea 	ldr	x10, [sp, #16]
  200244:	f900052a 	str	x10, [x9, #8]
  200248:	f9000128 	str	x8, [x9]
  20024c:	910083ff 	add	sp, sp, #0x20
  200250:	d65f03c0 	ret

0000000000200254 <_ZN4core3fmt9Arguments17from_str_nonconst17hbc6173fbd0bda6ffE>:
  200254:	d10083ff 	sub	sp, sp, #0x20
  200258:	f9000bfe 	str	x30, [sp, #16]
  20025c:	f90003e0 	str	x0, [sp]
  200260:	f90007e1 	str	x1, [sp, #8]
  200264:	94000004 	bl	200274 <_ZN4core3fmt9Arguments8from_str17h625a997ecc7dc914E>
  200268:	f9400bfe 	ldr	x30, [sp, #16]
  20026c:	910083ff 	add	sp, sp, #0x20
  200270:	d65f03c0 	ret

0000000000200274 <_ZN4core3fmt9Arguments8from_str17h625a997ecc7dc914E>:
  200274:	d10043ff 	sub	sp, sp, #0x10
  200278:	f90003e0 	str	x0, [sp]
  20027c:	f90007e1 	str	x1, [sp, #8]
  200280:	52800028 	mov	w8, #0x1                   	// #1
  200284:	aa010501 	orr	x1, x8, x1, lsl #1
  200288:	910043ff 	add	sp, sp, #0x10
  20028c:	d65f03c0 	ret

0000000000200290 <_ZN53_$LT$core..fmt..Error$u20$as$u20$core..fmt..Debug$GT$3fmt17hec50cce862f15c5eE>:
  200290:	d100c3ff 	sub	sp, sp, #0x30
  200294:	f90013fe 	str	x30, [sp, #32]
  200298:	f90007e1 	str	x1, [sp, #8]
  20029c:	aa0003e8 	mov	x8, x0
  2002a0:	f94007e0 	ldr	x0, [sp, #8]
  2002a4:	f9000be8 	str	x8, [sp, #16]
  2002a8:	f9000fe0 	str	x0, [sp, #24]
  2002ac:	f0000001 	adrp	x1, 203000 <_ZN4core9panicking9panic_fmt17hf8c9ba6c2299d6edE+0xb38>
  2002b0:	9113e021 	add	x1, x1, #0x4f8
  2002b4:	528000a8 	mov	w8, #0x5                   	// #5
  2002b8:	2a0803e2 	mov	w2, w8
  2002bc:	9400065f 	bl	201c38 <_ZN4core3fmt9Formatter9write_str17h84f67679a465af20E>
  2002c0:	f94013fe 	ldr	x30, [sp, #32]
  2002c4:	9100c3ff 	add	sp, sp, #0x30
  2002c8:	d65f03c0 	ret

00000000002002cc <_ZN4core3fmt9Arguments3new17h409afbde1f0fba10E>:
  2002cc:	d10043ff 	sub	sp, sp, #0x10
  2002d0:	f90003e0 	str	x0, [sp]
  2002d4:	f90007e1 	str	x1, [sp, #8]
  2002d8:	910043ff 	add	sp, sp, #0x10
  2002dc:	d65f03c0 	ret

00000000002002e0 <_ZN4user6stdlib8syscalls6_print17hd61b1a874d7e7597E>:
  2002e0:	d100c3ff 	sub	sp, sp, #0x30
  2002e4:	f90013fe 	str	x30, [sp, #32]
  2002e8:	aa0103e2 	mov	x2, x1
  2002ec:	aa0003e1 	mov	x1, x0
  2002f0:	f90007e1 	str	x1, [sp, #8]
  2002f4:	f9000be2 	str	x2, [sp, #16]
  2002f8:	91001fe0 	add	x0, sp, #0x7
  2002fc:	94000099 	bl	200560 <_ZN4core3fmt5Write9write_fmt17h40e0f27b2e1444f2E>
  200300:	39007be0 	strb	w0, [sp, #30]
  200304:	39407be8 	ldrb	w8, [sp, #30]
  200308:	36000188 	tbz	w8, #0, 200338 <_ZN4user6stdlib8syscalls6_print17hd61b1a874d7e7597E+0x58>
  20030c:	14000001 	b	200310 <_ZN4user6stdlib8syscalls6_print17hd61b1a874d7e7597E+0x30>
  200310:	f0000000 	adrp	x0, 203000 <_ZN4core9panicking9panic_fmt17hf8c9ba6c2299d6edE+0xb38>
  200314:	91148000 	add	x0, x0, #0x520
  200318:	f0000003 	adrp	x3, 203000 <_ZN4core9panicking9panic_fmt17hf8c9ba6c2299d6edE+0xb38>
  20031c:	91140063 	add	x3, x3, #0x500
  200320:	f0000004 	adrp	x4, 203000 <_ZN4core9panicking9panic_fmt17hf8c9ba6c2299d6edE+0xb38>
  200324:	91154084 	add	x4, x4, #0x550
  200328:	52800568 	mov	w8, #0x2b                  	// #43
  20032c:	2a0803e1 	mov	w1, w8
  200330:	91007fe2 	add	x2, sp, #0x1f
  200334:	9400082c 	bl	2023e4 <_ZN4core6result13unwrap_failed17h89589bbb6ce8ba23E>
  200338:	2a1f03e0 	mov	w0, wzr
  20033c:	f94013fe 	ldr	x30, [sp, #32]
  200340:	9100c3ff 	add	sp, sp, #0x30
  200344:	d65f03c0 	ret

0000000000200348 <_ZN67_$LT$user..stdlib..syscalls..Stdout$u20$as$u20$core..fmt..Write$GT$9write_str17h77135790f2d77d72E>:
  200348:	d10143ff 	sub	sp, sp, #0x50
  20034c:	f90023fe 	str	x30, [sp, #64]
  200350:	f90007e2 	str	x2, [sp, #8]
  200354:	aa0103e8 	mov	x8, x1
  200358:	f94007e1 	ldr	x1, [sp, #8]
  20035c:	f9000be8 	str	x8, [sp, #16]
  200360:	aa0003e8 	mov	x8, x0
  200364:	f9400be0 	ldr	x0, [sp, #16]
  200368:	f9000fe8 	str	x8, [sp, #24]
  20036c:	f90013e0 	str	x0, [sp, #32]
  200370:	f90017e1 	str	x1, [sp, #40]
  200374:	f9001be0 	str	x0, [sp, #48]
  200378:	f9001fe1 	str	x1, [sp, #56]
  20037c:	94000056 	bl	2004d4 <_ZN4core3str21_$LT$impl$u20$str$GT$3len17hd4d45cc8991804b0E>
  200380:	aa0003e1 	mov	x1, x0
  200384:	f9400be0 	ldr	x0, [sp, #16]
  200388:	d4000021 	svc	#0x1
  20038c:	2a1f03e0 	mov	w0, wzr
  200390:	f94023fe 	ldr	x30, [sp, #64]
  200394:	910143ff 	add	sp, sp, #0x50
  200398:	d65f03c0 	ret

000000000020039c <_ZN4core3fmt9Arguments23as_statically_known_str17h987a633aaa6eedcaE>:
  20039c:	d10203ff 	sub	sp, sp, #0x80
  2003a0:	f9003bfe 	str	x30, [sp, #112]
  2003a4:	f9000be0 	str	x0, [sp, #16]
  2003a8:	f9001be0 	str	x0, [sp, #48]
  2003ac:	f9400408 	ldr	x8, [x0, #8]
  2003b0:	aa0803e9 	mov	x9, x8
  2003b4:	f9000fe9 	str	x9, [sp, #24]
  2003b8:	f9001fe8 	str	x8, [sp, #56]
  2003bc:	360001c8 	tbz	w8, #0, 2003f4 <_ZN4core3fmt9Arguments23as_statically_known_str17h987a633aaa6eedcaE+0x58>
  2003c0:	14000001 	b	2003c4 <_ZN4core3fmt9Arguments23as_statically_known_str17h987a633aaa6eedcaE+0x28>
  2003c4:	f9400fe8 	ldr	x8, [sp, #24]
  2003c8:	f9400be9 	ldr	x9, [sp, #16]
  2003cc:	f9400129 	ldr	x9, [x9]
  2003d0:	aa0903ea 	mov	x10, x9
  2003d4:	f90003ea 	str	x10, [sp]
  2003d8:	f90023e9 	str	x9, [sp, #64]
  2003dc:	f90027e9 	str	x9, [sp, #72]
  2003e0:	d341fd08 	lsr	x8, x8, #1
  2003e4:	aa0803e9 	mov	x9, x8
  2003e8:	f90007e9 	str	x9, [sp, #8]
  2003ec:	f9002be8 	str	x8, [sp, #80]
  2003f0:	14000008 	b	200410 <_ZN4core3fmt9Arguments23as_statically_known_str17h987a633aaa6eedcaE+0x74>
  2003f4:	f0000008 	adrp	x8, 203000 <_ZN4core9panicking9panic_fmt17hf8c9ba6c2299d6edE+0xb38>
  2003f8:	91160108 	add	x8, x8, #0x580
  2003fc:	f9400109 	ldr	x9, [x8]
  200400:	f9400508 	ldr	x8, [x8, #8]
  200404:	f90013e9 	str	x9, [sp, #32]
  200408:	f90017e8 	str	x8, [sp, #40]
  20040c:	14000011 	b	200450 <_ZN4core3fmt9Arguments23as_statically_known_str17h987a633aaa6eedcaE+0xb4>
  200410:	f94007e3 	ldr	x3, [sp, #8]
  200414:	f94003e0 	ldr	x0, [sp]
  200418:	f0000004 	adrp	x4, 203000 <_ZN4core9panicking9panic_fmt17hf8c9ba6c2299d6edE+0xb38>
  20041c:	9115a084 	add	x4, x4, #0x568
  200420:	52800028 	mov	w8, #0x1                   	// #1
  200424:	2a0803e2 	mov	w2, w8
  200428:	aa0203e1 	mov	x1, x2
  20042c:	94000077 	bl	200608 <_ZN4core5slice3raw14from_raw_parts18precondition_check17hcd1676623915eaf5E>
  200430:	14000001 	b	200434 <_ZN4core3fmt9Arguments23as_statically_known_str17h987a633aaa6eedcaE+0x98>
  200434:	f94007e8 	ldr	x8, [sp, #8]
  200438:	f94003e9 	ldr	x9, [sp]
  20043c:	f9002fe9 	str	x9, [sp, #88]
  200440:	f90033e8 	str	x8, [sp, #96]
  200444:	f90013e9 	str	x9, [sp, #32]
  200448:	f90017e8 	str	x8, [sp, #40]
  20044c:	14000001 	b	200450 <_ZN4core3fmt9Arguments23as_statically_known_str17h987a633aaa6eedcaE+0xb4>
  200450:	2a1f03e8 	mov	w8, wzr
  200454:	3901bfe8 	strb	w8, [sp, #111]
  200458:	3941bfe8 	ldrb	w8, [sp, #111]
  20045c:	37000128 	tbnz	w8, #0, 200480 <_ZN4core3fmt9Arguments23as_statically_known_str17h987a633aaa6eedcaE+0xe4>
  200460:	14000001 	b	200464 <_ZN4core3fmt9Arguments23as_statically_known_str17h987a633aaa6eedcaE+0xc8>
  200464:	f0000008 	adrp	x8, 203000 <_ZN4core9panicking9panic_fmt17hf8c9ba6c2299d6edE+0xb38>
  200468:	91160108 	add	x8, x8, #0x580
  20046c:	f9400109 	ldr	x9, [x8]
  200470:	f9400508 	ldr	x8, [x8, #8]
  200474:	f90013e9 	str	x9, [sp, #32]
  200478:	f90017e8 	str	x8, [sp, #40]
  20047c:	14000002 	b	200484 <_ZN4core3fmt9Arguments23as_statically_known_str17h987a633aaa6eedcaE+0xe8>
  200480:	14000001 	b	200484 <_ZN4core3fmt9Arguments23as_statically_known_str17h987a633aaa6eedcaE+0xe8>
  200484:	f94013e0 	ldr	x0, [sp, #32]
  200488:	f94017e1 	ldr	x1, [sp, #40]
  20048c:	f9403bfe 	ldr	x30, [sp, #112]
  200490:	910203ff 	add	sp, sp, #0x80
  200494:	d65f03c0 	ret

0000000000200498 <_ZN53_$LT$core..fmt..Error$u20$as$u20$core..fmt..Debug$GT$3fmt17h6908df7cadf7d89fE>:
  200498:	d100c3ff 	sub	sp, sp, #0x30
  20049c:	f90013fe 	str	x30, [sp, #32]
  2004a0:	f90007e1 	str	x1, [sp, #8]
  2004a4:	aa0003e8 	mov	x8, x0
  2004a8:	f94007e0 	ldr	x0, [sp, #8]
  2004ac:	f9000be8 	str	x8, [sp, #16]
  2004b0:	f9000fe0 	str	x0, [sp, #24]
  2004b4:	f0000001 	adrp	x1, 203000 <_ZN4core9panicking9panic_fmt17hf8c9ba6c2299d6edE+0xb38>
  2004b8:	91164021 	add	x1, x1, #0x590
  2004bc:	528000a8 	mov	w8, #0x5                   	// #5
  2004c0:	2a0803e2 	mov	w2, w8
  2004c4:	940005dd 	bl	201c38 <_ZN4core3fmt9Formatter9write_str17h84f67679a465af20E>
  2004c8:	f94013fe 	ldr	x30, [sp, #32]
  2004cc:	9100c3ff 	add	sp, sp, #0x30
  2004d0:	d65f03c0 	ret

00000000002004d4 <_ZN4core3str21_$LT$impl$u20$str$GT$3len17hd4d45cc8991804b0E>:
  2004d4:	d10083ff 	sub	sp, sp, #0x20
  2004d8:	f90007e1 	str	x1, [sp, #8]
  2004dc:	aa0003e8 	mov	x8, x0
  2004e0:	f94007e0 	ldr	x0, [sp, #8]
  2004e4:	f9000be8 	str	x8, [sp, #16]
  2004e8:	f9000fe0 	str	x0, [sp, #24]
  2004ec:	910083ff 	add	sp, sp, #0x20
  2004f0:	d65f03c0 	ret

00000000002004f4 <_ZN4core3fmt5Write10write_char17hb49d7c13557256e6E>:
  2004f4:	d10183ff 	sub	sp, sp, #0x60
  2004f8:	f9002bfe 	str	x30, [sp, #80]
  2004fc:	b90007e1 	str	w1, [sp, #4]
  200500:	aa0003e8 	mov	x8, x0
  200504:	b94007e0 	ldr	w0, [sp, #4]
  200508:	f90007e8 	str	x8, [sp, #8]
  20050c:	f90013e8 	str	x8, [sp, #32]
  200510:	b9002fe0 	str	w0, [sp, #44]
  200514:	2a1f03e8 	mov	w8, wzr
  200518:	b9001fe8 	str	w8, [sp, #28]
  20051c:	910073e1 	add	x1, sp, #0x1c
  200520:	f9001be1 	str	x1, [sp, #48]
  200524:	52800088 	mov	w8, #0x4                   	// #4
  200528:	2a0803e2 	mov	w2, w8
  20052c:	f9001fe2 	str	x2, [sp, #56]
  200530:	940000d6 	bl	200888 <_ZN4core4char7methods15encode_utf8_raw17hfa35ffe48d93e29fE>
  200534:	aa0003e8 	mov	x8, x0
  200538:	f94007e0 	ldr	x0, [sp, #8]
  20053c:	f9000be8 	str	x8, [sp, #16]
  200540:	aa0103e2 	mov	x2, x1
  200544:	f9400be1 	ldr	x1, [sp, #16]
  200548:	f90023e1 	str	x1, [sp, #64]
  20054c:	f90027e2 	str	x2, [sp, #72]
  200550:	97ffff7e 	bl	200348 <_ZN67_$LT$user..stdlib..syscalls..Stdout$u20$as$u20$core..fmt..Write$GT$9write_str17h77135790f2d77d72E>
  200554:	f9402bfe 	ldr	x30, [sp, #80]
  200558:	910183ff 	add	sp, sp, #0x60
  20055c:	d65f03c0 	ret

0000000000200560 <_ZN4core3fmt5Write9write_fmt17h40e0f27b2e1444f2E>:
  200560:	d100c3ff 	sub	sp, sp, #0x30
  200564:	f90013fe 	str	x30, [sp, #32]
  200568:	f90007e0 	str	x0, [sp, #8]
  20056c:	f9000be1 	str	x1, [sp, #16]
  200570:	f9000fe2 	str	x2, [sp, #24]
  200574:	94000004 	bl	200584 <_ZN75_$LT$$RF$mut$u20$W$u20$as$u20$core..fmt..Write..write_fmt..SpecWriteFmt$GT$14spec_write_fmt17h6eeac590af92f7a0E>
  200578:	f94013fe 	ldr	x30, [sp, #32]
  20057c:	9100c3ff 	add	sp, sp, #0x30
  200580:	d65f03c0 	ret

0000000000200584 <_ZN75_$LT$$RF$mut$u20$W$u20$as$u20$core..fmt..Write..write_fmt..SpecWriteFmt$GT$14spec_write_fmt17h6eeac590af92f7a0E>:
  200584:	d10183ff 	sub	sp, sp, #0x60
  200588:	f9002bfe 	str	x30, [sp, #80]
  20058c:	f90007e0 	str	x0, [sp, #8]
  200590:	f9000be1 	str	x1, [sp, #16]
  200594:	f9000fe2 	str	x2, [sp, #24]
  200598:	f9001fe0 	str	x0, [sp, #56]
  20059c:	910043e0 	add	x0, sp, #0x10
  2005a0:	97ffff7f 	bl	20039c <_ZN4core3fmt9Arguments23as_statically_known_str17h987a633aaa6eedcaE>
  2005a4:	f90017e0 	str	x0, [sp, #40]
  2005a8:	f9001be1 	str	x1, [sp, #48]
  2005ac:	f94017e8 	ldr	x8, [sp, #40]
  2005b0:	b4000148 	cbz	x8, 2005d8 <_ZN75_$LT$$RF$mut$u20$W$u20$as$u20$core..fmt..Write..write_fmt..SpecWriteFmt$GT$14spec_write_fmt17h6eeac590af92f7a0E+0x54>
  2005b4:	14000001 	b	2005b8 <_ZN75_$LT$$RF$mut$u20$W$u20$as$u20$core..fmt..Write..write_fmt..SpecWriteFmt$GT$14spec_write_fmt17h6eeac590af92f7a0E+0x34>
  2005b8:	f94007e0 	ldr	x0, [sp, #8]
  2005bc:	f94017e1 	ldr	x1, [sp, #40]
  2005c0:	f9401be2 	ldr	x2, [sp, #48]
  2005c4:	f90023e1 	str	x1, [sp, #64]
  2005c8:	f90027e2 	str	x2, [sp, #72]
  2005cc:	97ffff5f 	bl	200348 <_ZN67_$LT$user..stdlib..syscalls..Stdout$u20$as$u20$core..fmt..Write$GT$9write_str17h77135790f2d77d72E>
  2005d0:	39009fe0 	strb	w0, [sp, #39]
  2005d4:	14000009 	b	2005f8 <_ZN75_$LT$$RF$mut$u20$W$u20$as$u20$core..fmt..Write..write_fmt..SpecWriteFmt$GT$14spec_write_fmt17h6eeac590af92f7a0E+0x74>
  2005d8:	f94007e0 	ldr	x0, [sp, #8]
  2005dc:	f9400be2 	ldr	x2, [sp, #16]
  2005e0:	f9400fe3 	ldr	x3, [sp, #24]
  2005e4:	f0000001 	adrp	x1, 203000 <_ZN4core9panicking9panic_fmt17hf8c9ba6c2299d6edE+0xb38>
  2005e8:	91166021 	add	x1, x1, #0x598
  2005ec:	940002d2 	bl	201134 <_ZN4core3fmt5write17h4e09d17c17eebf64E>
  2005f0:	39009fe0 	strb	w0, [sp, #39]
  2005f4:	14000001 	b	2005f8 <_ZN75_$LT$$RF$mut$u20$W$u20$as$u20$core..fmt..Write..write_fmt..SpecWriteFmt$GT$14spec_write_fmt17h6eeac590af92f7a0E+0x74>
  2005f8:	39409fe0 	ldrb	w0, [sp, #39]
  2005fc:	f9402bfe 	ldr	x30, [sp, #80]
  200600:	910183ff 	add	sp, sp, #0x60
  200604:	d65f03c0 	ret

0000000000200608 <_ZN4core5slice3raw14from_raw_parts18precondition_check17hcd1676623915eaf5E>:
  200608:	d10243ff 	sub	sp, sp, #0x90
  20060c:	f90043fe 	str	x30, [sp, #128]
  200610:	f9000be4 	str	x4, [sp, #16]
  200614:	f9000fe3 	str	x3, [sp, #24]
  200618:	f90013e2 	str	x2, [sp, #32]
  20061c:	aa0103e8 	mov	x8, x1
  200620:	f94013e1 	ldr	x1, [sp, #32]
  200624:	f90017e8 	str	x8, [sp, #40]
  200628:	f9001be0 	str	x0, [sp, #48]
  20062c:	f90023e0 	str	x0, [sp, #64]
  200630:	f90027e8 	str	x8, [sp, #72]
  200634:	f9002be1 	str	x1, [sp, #80]
  200638:	f9002fe3 	str	x3, [sp, #88]
  20063c:	2a1f03e8 	mov	w8, wzr
  200640:	39019fe8 	strb	w8, [sp, #103]
  200644:	f90037e0 	str	x0, [sp, #104]
  200648:	9400006e 	bl	200800 <_ZN4core3ptr9const_ptr33_$LT$impl$u20$$BP$const$u20$T$GT$13is_aligned_to17hafcc56e40599ed46E>
  20064c:	37000060 	tbnz	w0, #0, 200658 <_ZN4core5slice3raw14from_raw_parts18precondition_check17hcd1676623915eaf5E+0x50>
  200650:	14000001 	b	200654 <_ZN4core5slice3raw14from_raw_parts18precondition_check17hcd1676623915eaf5E+0x4c>
  200654:	14000004 	b	200664 <_ZN4core5slice3raw14from_raw_parts18precondition_check17hcd1676623915eaf5E+0x5c>
  200658:	f9401be8 	ldr	x8, [sp, #48]
  20065c:	b5000068 	cbnz	x8, 200668 <_ZN4core5slice3raw14from_raw_parts18precondition_check17hcd1676623915eaf5E+0x60>
  200660:	14000001 	b	200664 <_ZN4core5slice3raw14from_raw_parts18precondition_check17hcd1676623915eaf5E+0x5c>
  200664:	14000007 	b	200680 <_ZN4core5slice3raw14from_raw_parts18precondition_check17hcd1676623915eaf5E+0x78>
  200668:	f94017e8 	ldr	x8, [sp, #40]
  20066c:	f1000109 	subs	x9, x8, #0x0
  200670:	1a9f17e9 	cset	w9, eq	// eq = none
  200674:	b9000fe9 	str	w9, [sp, #12]
  200678:	b4000188 	cbz	x8, 2006a8 <_ZN4core5slice3raw14from_raw_parts18precondition_check17hcd1676623915eaf5E+0xa0>
  20067c:	1400000e 	b	2006b4 <_ZN4core5slice3raw14from_raw_parts18precondition_check17hcd1676623915eaf5E+0xac>
  200680:	f9400be3 	ldr	x3, [sp, #16]
  200684:	f0000000 	adrp	x0, 203000 <_ZN4core9panicking9panic_fmt17hf8c9ba6c2299d6edE+0xb38>
  200688:	91178000 	add	x0, x0, #0x5e0
  20068c:	f9003be0 	str	x0, [sp, #112]
  200690:	528022e8 	mov	w8, #0x117                 	// #279
  200694:	f9003fe8 	str	x8, [sp, #120]
  200698:	528045e8 	mov	w8, #0x22f                 	// #559
  20069c:	2a0803e1 	mov	w1, w8
  2006a0:	2a1f03e2 	mov	w2, wzr
  2006a4:	9400077f 	bl	2024a0 <_ZN4core9panicking18panic_nounwind_fmt17hf9ce0cc5a205ac0eE>
  2006a8:	92800008 	mov	x8, #0xffffffffffffffff    	// #-1
  2006ac:	f9001fe8 	str	x8, [sp, #56]
  2006b0:	14000004 	b	2006c0 <_ZN4core5slice3raw14from_raw_parts18precondition_check17hcd1676623915eaf5E+0xb8>
  2006b4:	b9400fe8 	ldr	w8, [sp, #12]
  2006b8:	37000188 	tbnz	w8, #0, 2006e8 <_ZN4core5slice3raw14from_raw_parts18precondition_check17hcd1676623915eaf5E+0xe0>
  2006bc:	14000006 	b	2006d4 <_ZN4core5slice3raw14from_raw_parts18precondition_check17hcd1676623915eaf5E+0xcc>
  2006c0:	f9400fe8 	ldr	x8, [sp, #24]
  2006c4:	f9401fe9 	ldr	x9, [sp, #56]
  2006c8:	eb090108 	subs	x8, x8, x9
  2006cc:	54000169 	b.ls	2006f8 <_ZN4core5slice3raw14from_raw_parts18precondition_check17hcd1676623915eaf5E+0xf0>  // b.plast
  2006d0:	14000009 	b	2006f4 <_ZN4core5slice3raw14from_raw_parts18precondition_check17hcd1676623915eaf5E+0xec>
  2006d4:	f94017e9 	ldr	x9, [sp, #40]
  2006d8:	92f00008 	mov	x8, #0x7fffffffffffffff    	// #9223372036854775807
  2006dc:	9ac90908 	udiv	x8, x8, x9
  2006e0:	f9001fe8 	str	x8, [sp, #56]
  2006e4:	17fffff7 	b	2006c0 <_ZN4core5slice3raw14from_raw_parts18precondition_check17hcd1676623915eaf5E+0xb8>
  2006e8:	f0000000 	adrp	x0, 203000 <_ZN4core9panicking9panic_fmt17hf8c9ba6c2299d6edE+0xb38>
  2006ec:	91172000 	add	x0, x0, #0x5c8
  2006f0:	94000750 	bl	202430 <_ZN4core9panicking11panic_const23panic_const_div_by_zero17h97a54d49f416882aE>
  2006f4:	17ffffe3 	b	200680 <_ZN4core5slice3raw14from_raw_parts18precondition_check17hcd1676623915eaf5E+0x78>
  2006f8:	f94043fe 	ldr	x30, [sp, #128]
  2006fc:	910243ff 	add	sp, sp, #0x90
  200700:	d65f03c0 	ret

0000000000200704 <_ZN4core5slice3raw18from_raw_parts_mut18precondition_check17h50ce3ffaae244541E>:
  200704:	d10243ff 	sub	sp, sp, #0x90
  200708:	f90043fe 	str	x30, [sp, #128]
  20070c:	f9000be4 	str	x4, [sp, #16]
  200710:	f9000fe3 	str	x3, [sp, #24]
  200714:	f90013e2 	str	x2, [sp, #32]
  200718:	aa0103e8 	mov	x8, x1
  20071c:	f94013e1 	ldr	x1, [sp, #32]
  200720:	f90017e8 	str	x8, [sp, #40]
  200724:	f9001be0 	str	x0, [sp, #48]
  200728:	f90023e0 	str	x0, [sp, #64]
  20072c:	f90027e8 	str	x8, [sp, #72]
  200730:	f9002be1 	str	x1, [sp, #80]
  200734:	f9002fe3 	str	x3, [sp, #88]
  200738:	2a1f03e8 	mov	w8, wzr
  20073c:	39019fe8 	strb	w8, [sp, #103]
  200740:	f90037e0 	str	x0, [sp, #104]
  200744:	9400002f 	bl	200800 <_ZN4core3ptr9const_ptr33_$LT$impl$u20$$BP$const$u20$T$GT$13is_aligned_to17hafcc56e40599ed46E>
  200748:	37000060 	tbnz	w0, #0, 200754 <_ZN4core5slice3raw18from_raw_parts_mut18precondition_check17h50ce3ffaae244541E+0x50>
  20074c:	14000001 	b	200750 <_ZN4core5slice3raw18from_raw_parts_mut18precondition_check17h50ce3ffaae244541E+0x4c>
  200750:	14000004 	b	200760 <_ZN4core5slice3raw18from_raw_parts_mut18precondition_check17h50ce3ffaae244541E+0x5c>
  200754:	f9401be8 	ldr	x8, [sp, #48]
  200758:	b5000068 	cbnz	x8, 200764 <_ZN4core5slice3raw18from_raw_parts_mut18precondition_check17h50ce3ffaae244541E+0x60>
  20075c:	14000001 	b	200760 <_ZN4core5slice3raw18from_raw_parts_mut18precondition_check17h50ce3ffaae244541E+0x5c>
  200760:	14000007 	b	20077c <_ZN4core5slice3raw18from_raw_parts_mut18precondition_check17h50ce3ffaae244541E+0x78>
  200764:	f94017e8 	ldr	x8, [sp, #40]
  200768:	f1000109 	subs	x9, x8, #0x0
  20076c:	1a9f17e9 	cset	w9, eq	// eq = none
  200770:	b9000fe9 	str	w9, [sp, #12]
  200774:	b4000188 	cbz	x8, 2007a4 <_ZN4core5slice3raw18from_raw_parts_mut18precondition_check17h50ce3ffaae244541E+0xa0>
  200778:	1400000e 	b	2007b0 <_ZN4core5slice3raw18from_raw_parts_mut18precondition_check17h50ce3ffaae244541E+0xac>
  20077c:	f9400be3 	ldr	x3, [sp, #16]
  200780:	f0000000 	adrp	x0, 203000 <_ZN4core9panicking9panic_fmt17hf8c9ba6c2299d6edE+0xb38>
  200784:	911bdc00 	add	x0, x0, #0x6f7
  200788:	f9003be0 	str	x0, [sp, #112]
  20078c:	52802368 	mov	w8, #0x11b                 	// #283
  200790:	f9003fe8 	str	x8, [sp, #120]
  200794:	528046e8 	mov	w8, #0x237                 	// #567
  200798:	2a0803e1 	mov	w1, w8
  20079c:	2a1f03e2 	mov	w2, wzr
  2007a0:	94000740 	bl	2024a0 <_ZN4core9panicking18panic_nounwind_fmt17hf9ce0cc5a205ac0eE>
  2007a4:	92800008 	mov	x8, #0xffffffffffffffff    	// #-1
  2007a8:	f9001fe8 	str	x8, [sp, #56]
  2007ac:	14000004 	b	2007bc <_ZN4core5slice3raw18from_raw_parts_mut18precondition_check17h50ce3ffaae244541E+0xb8>
  2007b0:	b9400fe8 	ldr	w8, [sp, #12]
  2007b4:	37000188 	tbnz	w8, #0, 2007e4 <_ZN4core5slice3raw18from_raw_parts_mut18precondition_check17h50ce3ffaae244541E+0xe0>
  2007b8:	14000006 	b	2007d0 <_ZN4core5slice3raw18from_raw_parts_mut18precondition_check17h50ce3ffaae244541E+0xcc>
  2007bc:	f9400fe8 	ldr	x8, [sp, #24]
  2007c0:	f9401fe9 	ldr	x9, [sp, #56]
  2007c4:	eb090108 	subs	x8, x8, x9
  2007c8:	54000169 	b.ls	2007f4 <_ZN4core5slice3raw18from_raw_parts_mut18precondition_check17h50ce3ffaae244541E+0xf0>  // b.plast
  2007cc:	14000009 	b	2007f0 <_ZN4core5slice3raw18from_raw_parts_mut18precondition_check17h50ce3ffaae244541E+0xec>
  2007d0:	f94017e9 	ldr	x9, [sp, #40]
  2007d4:	92f00008 	mov	x8, #0x7fffffffffffffff    	// #9223372036854775807
  2007d8:	9ac90908 	udiv	x8, x8, x9
  2007dc:	f9001fe8 	str	x8, [sp, #56]
  2007e0:	17fffff7 	b	2007bc <_ZN4core5slice3raw18from_raw_parts_mut18precondition_check17h50ce3ffaae244541E+0xb8>
  2007e4:	f0000000 	adrp	x0, 203000 <_ZN4core9panicking9panic_fmt17hf8c9ba6c2299d6edE+0xb38>
  2007e8:	91172000 	add	x0, x0, #0x5c8
  2007ec:	94000711 	bl	202430 <_ZN4core9panicking11panic_const23panic_const_div_by_zero17h97a54d49f416882aE>
  2007f0:	17ffffe3 	b	20077c <_ZN4core5slice3raw18from_raw_parts_mut18precondition_check17h50ce3ffaae244541E+0x78>
  2007f4:	f94043fe 	ldr	x30, [sp, #128]
  2007f8:	910243ff 	add	sp, sp, #0x90
  2007fc:	d65f03c0 	ret

0000000000200800 <_ZN4core3ptr9const_ptr33_$LT$impl$u20$$BP$const$u20$T$GT$13is_aligned_to17hafcc56e40599ed46E>:
  200800:	d10143ff 	sub	sp, sp, #0x50
  200804:	f90023fe 	str	x30, [sp, #64]
  200808:	f90007e1 	str	x1, [sp, #8]
  20080c:	f9000be0 	str	x0, [sp, #16]
  200810:	f9000fe0 	str	x0, [sp, #24]
  200814:	f90013e1 	str	x1, [sp, #32]
  200818:	9e670020 	fmov	d0, x1
  20081c:	0e205800 	cnt	v0.8b, v0.8b
  200820:	0e31b800 	addv	b0, v0.8b
  200824:	1e204001 	fmov	s1, s0
  200828:	1e604020 	fmov	d0, d1
  20082c:	bd002fe0 	str	s0, [sp, #44]
  200830:	b9402fe8 	ldr	w8, [sp, #44]
  200834:	71000508 	subs	w8, w8, #0x1
  200838:	54000141 	b.ne	200860 <_ZN4core3ptr9const_ptr33_$LT$impl$u20$$BP$const$u20$T$GT$13is_aligned_to17hafcc56e40599ed46E+0x60>  // b.any
  20083c:	14000001 	b	200840 <_ZN4core3ptr9const_ptr33_$LT$impl$u20$$BP$const$u20$T$GT$13is_aligned_to17hafcc56e40599ed46E+0x40>
  200840:	f9400be8 	ldr	x8, [sp, #16]
  200844:	f94007e9 	ldr	x9, [sp, #8]
  200848:	f1000529 	subs	x9, x9, #0x1
  20084c:	ea090108 	ands	x8, x8, x9
  200850:	1a9f17e0 	cset	w0, eq	// eq = none
  200854:	f94023fe 	ldr	x30, [sp, #64]
  200858:	910143ff 	add	sp, sp, #0x50
  20085c:	d65f03c0 	ret
  200860:	f0000000 	adrp	x0, 203000 <_ZN4core9panicking9panic_fmt17hf8c9ba6c2299d6edE+0xb38>
  200864:	91204800 	add	x0, x0, #0x812
  200868:	f9001be0 	str	x0, [sp, #48]
  20086c:	52800548 	mov	w8, #0x2a                  	// #42
  200870:	f9001fe8 	str	x8, [sp, #56]
  200874:	f0000002 	adrp	x2, 203000 <_ZN4core9panicking9panic_fmt17hf8c9ba6c2299d6edE+0xb38>
  200878:	91210042 	add	x2, x2, #0x840
  20087c:	52800aa8 	mov	w8, #0x55                  	// #85
  200880:	2a0803e1 	mov	w1, w8
  200884:	94000711 	bl	2024c8 <_ZN4core9panicking9panic_fmt17hf8c9ba6c2299d6edE>

0000000000200888 <_ZN4core4char7methods15encode_utf8_raw17hfa35ffe48d93e29fE>:
  200888:	d10183ff 	sub	sp, sp, #0x60
  20088c:	f9002bfe 	str	x30, [sp, #80]
  200890:	f90007e2 	str	x2, [sp, #8]
  200894:	f9000be1 	str	x1, [sp, #16]
  200898:	b9001fe0 	str	w0, [sp, #28]
  20089c:	b9002fe0 	str	w0, [sp, #44]
  2008a0:	f9001be1 	str	x1, [sp, #48]
  2008a4:	f9001fe2 	str	x2, [sp, #56]
  2008a8:	71020008 	subs	w8, w0, #0x80
  2008ac:	540000c3 	b.cc	2008c4 <_ZN4core4char7methods15encode_utf8_raw17hfa35ffe48d93e29fE+0x3c>  // b.lo, b.ul, b.last
  2008b0:	14000001 	b	2008b4 <_ZN4core4char7methods15encode_utf8_raw17hfa35ffe48d93e29fE+0x2c>
  2008b4:	b9401fe8 	ldr	w8, [sp, #28]
  2008b8:	71200108 	subs	w8, w8, #0x800
  2008bc:	54000123 	b.cc	2008e0 <_ZN4core4char7methods15encode_utf8_raw17hfa35ffe48d93e29fE+0x58>  // b.lo, b.ul, b.last
  2008c0:	14000004 	b	2008d0 <_ZN4core4char7methods15encode_utf8_raw17hfa35ffe48d93e29fE+0x48>
  2008c4:	52800028 	mov	w8, #0x1                   	// #1
  2008c8:	f90013e8 	str	x8, [sp, #32]
  2008cc:	1400000e 	b	200904 <_ZN4core4char7methods15encode_utf8_raw17hfa35ffe48d93e29fE+0x7c>
  2008d0:	b9401fe8 	ldr	w8, [sp, #28]
  2008d4:	71404108 	subs	w8, w8, #0x10, lsl #12
  2008d8:	54000103 	b.cc	2008f8 <_ZN4core4char7methods15encode_utf8_raw17hfa35ffe48d93e29fE+0x70>  // b.lo, b.ul, b.last
  2008dc:	14000004 	b	2008ec <_ZN4core4char7methods15encode_utf8_raw17hfa35ffe48d93e29fE+0x64>
  2008e0:	52800048 	mov	w8, #0x2                   	// #2
  2008e4:	f90013e8 	str	x8, [sp, #32]
  2008e8:	14000007 	b	200904 <_ZN4core4char7methods15encode_utf8_raw17hfa35ffe48d93e29fE+0x7c>
  2008ec:	52800088 	mov	w8, #0x4                   	// #4
  2008f0:	f90013e8 	str	x8, [sp, #32]
  2008f4:	14000004 	b	200904 <_ZN4core4char7methods15encode_utf8_raw17hfa35ffe48d93e29fE+0x7c>
  2008f8:	52800068 	mov	w8, #0x3                   	// #3
  2008fc:	f90013e8 	str	x8, [sp, #32]
  200900:	14000001 	b	200904 <_ZN4core4char7methods15encode_utf8_raw17hfa35ffe48d93e29fE+0x7c>
  200904:	f94007e8 	ldr	x8, [sp, #8]
  200908:	f90023e8 	str	x8, [sp, #64]
  20090c:	f94013e9 	ldr	x9, [sp, #32]
  200910:	eb090108 	subs	x8, x8, x9
  200914:	54000103 	b.cc	200934 <_ZN4core4char7methods15encode_utf8_raw17hfa35ffe48d93e29fE+0xac>  // b.lo, b.ul, b.last
  200918:	14000001 	b	20091c <_ZN4core4char7methods15encode_utf8_raw17hfa35ffe48d93e29fE+0x94>
  20091c:	f9400be1 	ldr	x1, [sp, #16]
  200920:	b9401fe0 	ldr	w0, [sp, #28]
  200924:	9400004f 	bl	200a60 <_ZN4core4char7methods25encode_utf8_raw_unchecked17hd966ba4434823f03E>
  200928:	f9400be8 	ldr	x8, [sp, #16]
  20092c:	f90027e8 	str	x8, [sp, #72]
  200930:	14000007 	b	20094c <_ZN4core4char7methods15encode_utf8_raw17hfa35ffe48d93e29fE+0xc4>
  200934:	f94007e2 	ldr	x2, [sp, #8]
  200938:	b9401fe0 	ldr	w0, [sp, #28]
  20093c:	f94013e1 	ldr	x1, [sp, #32]
  200940:	f0000003 	adrp	x3, 203000 <_ZN4core9panicking9panic_fmt17hf8c9ba6c2299d6edE+0xb38>
  200944:	9121c063 	add	x3, x3, #0x870
  200948:	9400000f 	bl	200984 <_ZN4core4char7methods15encode_utf8_raw8do_panic7runtime17h8d914e7485e41702E>
  20094c:	f9400be0 	ldr	x0, [sp, #16]
  200950:	f94013e3 	ldr	x3, [sp, #32]
  200954:	f0000004 	adrp	x4, 203000 <_ZN4core9panicking9panic_fmt17hf8c9ba6c2299d6edE+0xb38>
  200958:	91216084 	add	x4, x4, #0x858
  20095c:	52800028 	mov	w8, #0x1                   	// #1
  200960:	2a0803e2 	mov	w2, w8
  200964:	aa0203e1 	mov	x1, x2
  200968:	97ffff67 	bl	200704 <_ZN4core5slice3raw18from_raw_parts_mut18precondition_check17h50ce3ffaae244541E>
  20096c:	14000001 	b	200970 <_ZN4core4char7methods15encode_utf8_raw17hfa35ffe48d93e29fE+0xe8>
  200970:	f9400be0 	ldr	x0, [sp, #16]
  200974:	f94013e1 	ldr	x1, [sp, #32]
  200978:	f9402bfe 	ldr	x30, [sp, #80]
  20097c:	910183ff 	add	sp, sp, #0x60
  200980:	d65f03c0 	ret

0000000000200984 <_ZN4core4char7methods15encode_utf8_raw8do_panic7runtime17h8d914e7485e41702E>:
  200984:	d103c3ff 	sub	sp, sp, #0xf0
  200988:	f90073fe 	str	x30, [sp, #224]
  20098c:	910263e8 	add	x8, sp, #0x98
  200990:	f90007e3 	str	x3, [sp, #8]
  200994:	aa0203e9 	mov	x9, x2
  200998:	f94007e2 	ldr	x2, [sp, #8]
  20099c:	b90017e0 	str	w0, [sp, #20]
  2009a0:	f9000fe1 	str	x1, [sp, #24]
  2009a4:	f90013e9 	str	x9, [sp, #32]
  2009a8:	f0000000 	adrp	x0, 203000 <_ZN4core9panicking9panic_fmt17hf8c9ba6c2299d6edE+0xb38>
  2009ac:	91222000 	add	x0, x0, #0x888
  2009b0:	f9001100 	str	x0, [x8, #32]
  2009b4:	910063e9 	add	x9, sp, #0x18
  2009b8:	f9001509 	str	x9, [x8, #40]
  2009bc:	910053eb 	add	x11, sp, #0x14
  2009c0:	f900190b 	str	x11, [x8, #48]
  2009c4:	910083ea 	add	x10, sp, #0x20
  2009c8:	f9001d0a 	str	x10, [x8, #56]
  2009cc:	f90047e9 	str	x9, [sp, #136]
  2009d0:	b0000009 	adrp	x9, 201000 <_ZN4core3fmt3num3imp52_$LT$impl$u20$core..fmt..Display$u20$for$u20$i32$GT$3fmt17h54e0569a8f948ea9E+0x10>
  2009d4:	91017129 	add	x9, x9, #0x5c
  2009d8:	f9004be9 	str	x9, [sp, #144]
  2009dc:	f94047ec 	ldr	x12, [sp, #136]
  2009e0:	f9404bed 	ldr	x13, [sp, #144]
  2009e4:	f90033ed 	str	x13, [sp, #96]
  2009e8:	f9002fec 	str	x12, [sp, #88]
  2009ec:	f900010b 	str	x11, [x8]
  2009f0:	b000000b 	adrp	x11, 201000 <_ZN4core3fmt3num3imp52_$LT$impl$u20$core..fmt..Display$u20$for$u20$i32$GT$3fmt17h54e0569a8f948ea9E+0x10>
  2009f4:	9102f16b 	add	x11, x11, #0xbc
  2009f8:	f900050b 	str	x11, [x8, #8]
  2009fc:	f940010b 	ldr	x11, [x8]
  200a00:	f940050c 	ldr	x12, [x8, #8]
  200a04:	f9003bec 	str	x12, [sp, #112]
  200a08:	f90037eb 	str	x11, [sp, #104]
  200a0c:	f900090a 	str	x10, [x8, #16]
  200a10:	f9000d09 	str	x9, [x8, #24]
  200a14:	f9400909 	ldr	x9, [x8, #16]
  200a18:	f9400d0a 	ldr	x10, [x8, #24]
  200a1c:	f90043ea 	str	x10, [sp, #128]
  200a20:	f9003fe9 	str	x9, [sp, #120]
  200a24:	f9402fe9 	ldr	x9, [sp, #88]
  200a28:	f94033ea 	ldr	x10, [sp, #96]
  200a2c:	f9001bea 	str	x10, [sp, #48]
  200a30:	f90017e9 	str	x9, [sp, #40]
  200a34:	f94037e9 	ldr	x9, [sp, #104]
  200a38:	f9403bea 	ldr	x10, [sp, #112]
  200a3c:	f90023ea 	str	x10, [sp, #64]
  200a40:	f9001fe9 	str	x9, [sp, #56]
  200a44:	f9403fe9 	ldr	x9, [sp, #120]
  200a48:	f94043ea 	ldr	x10, [sp, #128]
  200a4c:	f9002bea 	str	x10, [sp, #80]
  200a50:	f90027e9 	str	x9, [sp, #72]
  200a54:	9100a3e1 	add	x1, sp, #0x28
  200a58:	f9002101 	str	x1, [x8, #64]
  200a5c:	9400069b 	bl	2024c8 <_ZN4core9panicking9panic_fmt17hf8c9ba6c2299d6edE>

0000000000200a60 <_ZN4core4char7methods25encode_utf8_raw_unchecked17hd966ba4434823f03E>:
  200a60:	d101c3ff 	sub	sp, sp, #0x70
  200a64:	f9000be1 	str	x1, [sp, #16]
  200a68:	b9001fe0 	str	w0, [sp, #28]
  200a6c:	b9002fe0 	str	w0, [sp, #44]
  200a70:	f9001be1 	str	x1, [sp, #48]
  200a74:	52800028 	mov	w8, #0x1                   	// #1
  200a78:	f9001fe8 	str	x8, [sp, #56]
  200a7c:	f90023e8 	str	x8, [sp, #64]
  200a80:	f90027e8 	str	x8, [sp, #72]
  200a84:	52800048 	mov	w8, #0x2                   	// #2
  200a88:	f9002be8 	str	x8, [sp, #80]
  200a8c:	f9002fe8 	str	x8, [sp, #88]
  200a90:	52800068 	mov	w8, #0x3                   	// #3
  200a94:	f90033e8 	str	x8, [sp, #96]
  200a98:	71020008 	subs	w8, w0, #0x80
  200a9c:	540000c3 	b.cc	200ab4 <_ZN4core4char7methods25encode_utf8_raw_unchecked17hd966ba4434823f03E+0x54>  // b.lo, b.ul, b.last
  200aa0:	14000001 	b	200aa4 <_ZN4core4char7methods25encode_utf8_raw_unchecked17hd966ba4434823f03E+0x44>
  200aa4:	b9401fe8 	ldr	w8, [sp, #28]
  200aa8:	71200108 	subs	w8, w8, #0x800
  200aac:	54000183 	b.cc	200adc <_ZN4core4char7methods25encode_utf8_raw_unchecked17hd966ba4434823f03E+0x7c>  // b.lo, b.ul, b.last
  200ab0:	14000007 	b	200acc <_ZN4core4char7methods25encode_utf8_raw_unchecked17hd966ba4434823f03E+0x6c>
  200ab4:	b9401fe8 	ldr	w8, [sp, #28]
  200ab8:	f9400be9 	ldr	x9, [sp, #16]
  200abc:	5280002a 	mov	w10, #0x1                   	// #1
  200ac0:	f90013ea 	str	x10, [sp, #32]
  200ac4:	39000128 	strb	w8, [x9]
  200ac8:	14000032 	b	200b90 <_ZN4core4char7methods25encode_utf8_raw_unchecked17hd966ba4434823f03E+0x130>
  200acc:	b9401fe8 	ldr	w8, [sp, #28]
  200ad0:	71404108 	subs	w8, w8, #0x10, lsl #12
  200ad4:	54000103 	b.cc	200af4 <_ZN4core4char7methods25encode_utf8_raw_unchecked17hd966ba4434823f03E+0x94>  // b.lo, b.ul, b.last
  200ad8:	14000004 	b	200ae8 <_ZN4core4char7methods25encode_utf8_raw_unchecked17hd966ba4434823f03E+0x88>
  200adc:	52800048 	mov	w8, #0x2                   	// #2
  200ae0:	f90013e8 	str	x8, [sp, #32]
  200ae4:	14000007 	b	200b00 <_ZN4core4char7methods25encode_utf8_raw_unchecked17hd966ba4434823f03E+0xa0>
  200ae8:	52800088 	mov	w8, #0x4                   	// #4
  200aec:	f90013e8 	str	x8, [sp, #32]
  200af0:	14000004 	b	200b00 <_ZN4core4char7methods25encode_utf8_raw_unchecked17hd966ba4434823f03E+0xa0>
  200af4:	52800068 	mov	w8, #0x3                   	// #3
  200af8:	f90013e8 	str	x8, [sp, #32]
  200afc:	14000001 	b	200b00 <_ZN4core4char7methods25encode_utf8_raw_unchecked17hd966ba4434823f03E+0xa0>
  200b00:	b9401fe8 	ldr	w8, [sp, #28]
  200b04:	12800fe9 	mov	w9, #0xffffff80            	// #-128
  200b08:	2a0903ea 	mov	w10, w9
  200b0c:	3300150a 	bfxil	w10, w8, #0, #6
  200b10:	2a0a03eb 	mov	w11, w10
  200b14:	b90003eb 	str	w11, [sp]
  200b18:	3901b3ea 	strb	w10, [sp, #108]
  200b1c:	2a0903ea 	mov	w10, w9
  200b20:	33062d0a 	bfxil	w10, w8, #6, #6
  200b24:	2a0a03eb 	mov	w11, w10
  200b28:	b90007eb 	str	w11, [sp, #4]
  200b2c:	3901b7ea 	strb	w10, [sp, #109]
  200b30:	330c4509 	bfxil	w9, w8, #12, #6
  200b34:	2a0903ea 	mov	w10, w9
  200b38:	b9000bea 	str	w10, [sp, #8]
  200b3c:	3901bbe9 	strb	w9, [sp, #110]
  200b40:	53127d08 	lsr	w8, w8, #18
  200b44:	321c6d08 	orr	w8, w8, #0xfffffff0
  200b48:	2a0803e9 	mov	w9, w8
  200b4c:	b9000fe9 	str	w9, [sp, #12]
  200b50:	3901bfe8 	strb	w8, [sp, #111]
  200b54:	f94013e8 	ldr	x8, [sp, #32]
  200b58:	f1000908 	subs	x8, x8, #0x2
  200b5c:	54000121 	b.ne	200b80 <_ZN4core4char7methods25encode_utf8_raw_unchecked17hd966ba4434823f03E+0x120>  // b.any
  200b60:	14000001 	b	200b64 <_ZN4core4char7methods25encode_utf8_raw_unchecked17hd966ba4434823f03E+0x104>
  200b64:	b94003e8 	ldr	w8, [sp]
  200b68:	f9400be9 	ldr	x9, [sp, #16]
  200b6c:	b94007ea 	ldr	w10, [sp, #4]
  200b70:	321a054a 	orr	w10, w10, #0xc0
  200b74:	3900012a 	strb	w10, [x9]
  200b78:	39000528 	strb	w8, [x9, #1]
  200b7c:	14000005 	b	200b90 <_ZN4core4char7methods25encode_utf8_raw_unchecked17hd966ba4434823f03E+0x130>
  200b80:	f94013e8 	ldr	x8, [sp, #32]
  200b84:	f1000d08 	subs	x8, x8, #0x3
  200b88:	54000060 	b.eq	200b94 <_ZN4core4char7methods25encode_utf8_raw_unchecked17hd966ba4434823f03E+0x134>  // b.none
  200b8c:	1400000b 	b	200bb8 <_ZN4core4char7methods25encode_utf8_raw_unchecked17hd966ba4434823f03E+0x158>
  200b90:	14000014 	b	200be0 <_ZN4core4char7methods25encode_utf8_raw_unchecked17hd966ba4434823f03E+0x180>
  200b94:	b94003e8 	ldr	w8, [sp]
  200b98:	f9400be9 	ldr	x9, [sp, #16]
  200b9c:	b94007ea 	ldr	w10, [sp, #4]
  200ba0:	b9400beb 	ldr	w11, [sp, #8]
  200ba4:	321b096b 	orr	w11, w11, #0xe0
  200ba8:	3900012b 	strb	w11, [x9]
  200bac:	3900052a 	strb	w10, [x9, #1]
  200bb0:	39000928 	strb	w8, [x9, #2]
  200bb4:	17fffff7 	b	200b90 <_ZN4core4char7methods25encode_utf8_raw_unchecked17hd966ba4434823f03E+0x130>
  200bb8:	b94003e8 	ldr	w8, [sp]
  200bbc:	f9400be9 	ldr	x9, [sp, #16]
  200bc0:	b94007ea 	ldr	w10, [sp, #4]
  200bc4:	b9400beb 	ldr	w11, [sp, #8]
  200bc8:	b9400fec 	ldr	w12, [sp, #12]
  200bcc:	3900012c 	strb	w12, [x9]
  200bd0:	3900052b 	strb	w11, [x9, #1]
  200bd4:	3900092a 	strb	w10, [x9, #2]
  200bd8:	39000d28 	strb	w8, [x9, #3]
  200bdc:	14000001 	b	200be0 <_ZN4core4char7methods25encode_utf8_raw_unchecked17hd966ba4434823f03E+0x180>
  200be0:	9101c3ff 	add	sp, sp, #0x70
  200be4:	d65f03c0 	ret

0000000000200be8 <_ZN42_$LT$$RF$T$u20$as$u20$core..fmt..Debug$GT$3fmt17h7d9497f03c63b3a6E>:
  200be8:	a9402000 	ldp	x0, x8, [x0]
  200bec:	f9400d02 	ldr	x2, [x8, #24]
  200bf0:	d61f0040 	br	x2

0000000000200bf4 <_ZN44_$LT$$RF$T$u20$as$u20$core..fmt..Display$GT$3fmt17h097300e123816cc8E>:
  200bf4:	a9400808 	ldp	x8, x2, [x0]
  200bf8:	aa0103e0 	mov	x0, x1
  200bfc:	aa0803e1 	mov	x1, x8
  200c00:	14000312 	b	201848 <_ZN4core3fmt9Formatter3pad17hd5e22725c7165dbdE>

0000000000200c04 <_ZN4core3fmt3num3imp21_$LT$impl$u20$u32$GT$10_fmt_inner17h32293f8b061dea48E>:
  200c04:	a9bf7bfd 	stp	x29, x30, [sp, #-16]!
  200c08:	910003fd 	mov	x29, sp
  200c0c:	710fa01f 	cmp	w0, #0x3e8
  200c10:	2a0003e9 	mov	w9, w0
  200c14:	aa0203ea 	mov	x10, x2
  200c18:	54000683 	b.cc	200ce8 <_ZN4core3fmt3num3imp21_$LT$impl$u20$u32$GT$10_fmt_inner17h32293f8b061dea48E+0xe4>  // b.lo, b.ul, b.last
  200c1c:	5282eb2c 	mov	w12, #0x1759                	// #5977
  200c20:	5292cff1 	mov	w17, #0x967f                	// #38527
  200c24:	aa1f03ea 	mov	x10, xzr
  200c28:	d100082b 	sub	x11, x1, #0x2
  200c2c:	72ba36ec 	movk	w12, #0xd1b7, lsl #16
  200c30:	5284e20d 	mov	w13, #0x2710                	// #10000
  200c34:	52828f6e 	mov	w14, #0x147b                	// #5243
  200c38:	f000000f 	adrp	x15, 203000 <_ZN4core9panicking9panic_fmt17hf8c9ba6c2299d6edE+0xb38>
  200c3c:	9125c1ef 	add	x15, x15, #0x970
  200c40:	52800c90 	mov	w16, #0x64                  	// #100
  200c44:	72a01311 	movk	w17, #0x98, lsl #16
  200c48:	2a0003f2 	mov	w18, w0
  200c4c:	8b0a0045 	add	x5, x2, x10
  200c50:	d10010a8 	sub	x8, x5, #0x4
  200c54:	eb02011f 	cmp	x8, x2
  200c58:	540009c2 	b.cs	200d90 <_ZN4core3fmt3num3imp21_$LT$impl$u20$u32$GT$10_fmt_inner17h32293f8b061dea48E+0x18c>  // b.hs, b.nlast
  200c5c:	9bac7e48 	umull	x8, w18, w12
  200c60:	d1000ca7 	sub	x7, x5, #0x3
  200c64:	8b020165 	add	x5, x11, x2
  200c68:	eb0200ff 	cmp	x7, x2
  200c6c:	d36dfd09 	lsr	x9, x8, #45
  200c70:	1b0dc923 	msub	w3, w9, w13, w18
  200c74:	53023c68 	ubfx	w8, w3, #2, #14
  200c78:	1b0e7d08 	mul	w8, w8, w14
  200c7c:	53117d04 	lsr	w4, w8, #17
  200c80:	8b2445e8 	add	x8, x15, w4, uxtw #1
  200c84:	39400106 	ldrb	w6, [x8]
  200c88:	381fe0a6 	sturb	w6, [x5, #-2]
  200c8c:	540009c2 	b.cs	200dc4 <_ZN4core3fmt3num3imp21_$LT$impl$u20$u32$GT$10_fmt_inner17h32293f8b061dea48E+0x1c0>  // b.hs, b.nlast
  200c90:	8b0a0046 	add	x6, x2, x10
  200c94:	39400507 	ldrb	w7, [x8, #1]
  200c98:	d10008c8 	sub	x8, x6, #0x2
  200c9c:	eb02011f 	cmp	x8, x2
  200ca0:	381ff0a7 	sturb	w7, [x5, #-1]
  200ca4:	54000762 	b.cs	200d90 <_ZN4core3fmt3num3imp21_$LT$impl$u20$u32$GT$10_fmt_inner17h32293f8b061dea48E+0x18c>  // b.hs, b.nlast
  200ca8:	1b108c88 	msub	w8, w4, w16, w3
  200cac:	d10004c3 	sub	x3, x6, #0x1
  200cb0:	eb02007f 	cmp	x3, x2
  200cb4:	8b2825e8 	add	x8, x15, w8, uxth #1
  200cb8:	39400104 	ldrb	w4, [x8]
  200cbc:	38226964 	strb	w4, [x11, x2]
  200cc0:	54000742 	b.cs	200da8 <_ZN4core3fmt3num3imp21_$LT$impl$u20$u32$GT$10_fmt_inner17h32293f8b061dea48E+0x1a4>  // b.hs, b.nlast
  200cc4:	39400508 	ldrb	w8, [x8, #1]
  200cc8:	8b020163 	add	x3, x11, x2
  200ccc:	6b11025f 	cmp	w18, w17
  200cd0:	d100114a 	sub	x10, x10, #0x4
  200cd4:	d100116b 	sub	x11, x11, #0x4
  200cd8:	2a0903f2 	mov	w18, w9
  200cdc:	39000468 	strb	w8, [x3, #1]
  200ce0:	54fffb68 	b.hi	200c4c <_ZN4core3fmt3num3imp21_$LT$impl$u20$u32$GT$10_fmt_inner17h32293f8b061dea48E+0x48>  // b.pmore
  200ce4:	8b0a004a 	add	x10, x2, x10
  200ce8:	7100253f 	cmp	w9, #0x9
  200cec:	540002e9 	b.ls	200d48 <_ZN4core3fmt3num3imp21_$LT$impl$u20$u32$GT$10_fmt_inner17h32293f8b061dea48E+0x144>  // b.plast
  200cf0:	d1000948 	sub	x8, x10, #0x2
  200cf4:	eb02011f 	cmp	x8, x2
  200cf8:	540004c2 	b.cs	200d90 <_ZN4core3fmt3num3imp21_$LT$impl$u20$u32$GT$10_fmt_inner17h32293f8b061dea48E+0x18c>  // b.hs, b.nlast
  200cfc:	53023d2b 	ubfx	w11, w9, #2, #14
  200d00:	52828f6c 	mov	w12, #0x147b                	// #5243
  200d04:	1b0c7d6b 	mul	w11, w11, w12
  200d08:	52800c8c 	mov	w12, #0x64                  	// #100
  200d0c:	53117d6b 	lsr	w11, w11, #17
  200d10:	1b0ca569 	msub	w9, w11, w12, w9
  200d14:	f000000c 	adrp	x12, 203000 <_ZN4core9panicking9panic_fmt17hf8c9ba6c2299d6edE+0xb38>
  200d18:	9125c18c 	add	x12, x12, #0x970
  200d1c:	8b29258c 	add	x12, x12, w9, uxth #1
  200d20:	d1000549 	sub	x9, x10, #0x1
  200d24:	eb02013f 	cmp	x9, x2
  200d28:	3940018a 	ldrb	w10, [x12]
  200d2c:	3828682a 	strb	w10, [x1, x8]
  200d30:	54000582 	b.cs	200de0 <_ZN4core3fmt3num3imp21_$LT$impl$u20$u32$GT$10_fmt_inner17h32293f8b061dea48E+0x1dc>  // b.hs, b.nlast
  200d34:	3940058a 	ldrb	w10, [x12, #1]
  200d38:	3829682a 	strb	w10, [x1, x9]
  200d3c:	2a0b03e9 	mov	w9, w11
  200d40:	35000080 	cbnz	w0, 200d50 <_ZN4core3fmt3num3imp21_$LT$impl$u20$u32$GT$10_fmt_inner17h32293f8b061dea48E+0x14c>
  200d44:	14000007 	b	200d60 <_ZN4core3fmt3num3imp21_$LT$impl$u20$u32$GT$10_fmt_inner17h32293f8b061dea48E+0x15c>
  200d48:	aa0a03e8 	mov	x8, x10
  200d4c:	340000a0 	cbz	w0, 200d60 <_ZN4core3fmt3num3imp21_$LT$impl$u20$u32$GT$10_fmt_inner17h32293f8b061dea48E+0x15c>
  200d50:	35000089 	cbnz	w9, 200d60 <_ZN4core3fmt3num3imp21_$LT$impl$u20$u32$GT$10_fmt_inner17h32293f8b061dea48E+0x15c>
  200d54:	aa0803e0 	mov	x0, x8
  200d58:	a8c17bfd 	ldp	x29, x30, [sp], #16
  200d5c:	d65f03c0 	ret
  200d60:	d1000508 	sub	x8, x8, #0x1
  200d64:	eb02011f 	cmp	x8, x2
  200d68:	54000142 	b.cs	200d90 <_ZN4core3fmt3num3imp21_$LT$impl$u20$u32$GT$10_fmt_inner17h32293f8b061dea48E+0x18c>  // b.hs, b.nlast
  200d6c:	531f7929 	lsl	w9, w9, #1
  200d70:	f000000a 	adrp	x10, 203000 <_ZN4core9panicking9panic_fmt17hf8c9ba6c2299d6edE+0xb38>
  200d74:	9125c14a 	add	x10, x10, #0x970
  200d78:	8b090149 	add	x9, x10, x9
  200d7c:	39400529 	ldrb	w9, [x9, #1]
  200d80:	38286829 	strb	w9, [x1, x8]
  200d84:	aa0803e0 	mov	x0, x8
  200d88:	a8c17bfd 	ldp	x29, x30, [sp], #16
  200d8c:	d65f03c0 	ret
  200d90:	f0000009 	adrp	x9, 203000 <_ZN4core9panicking9panic_fmt17hf8c9ba6c2299d6edE+0xb38>
  200d94:	9128e129 	add	x9, x9, #0xa38
  200d98:	aa0803e0 	mov	x0, x8
  200d9c:	aa0203e1 	mov	x1, x2
  200da0:	aa0903e2 	mov	x2, x9
  200da4:	940005b1 	bl	202468 <_ZN4core9panicking18panic_bounds_check17h210ff946a1327b86E>
  200da8:	8b0a0048 	add	x8, x2, x10
  200dac:	d1000500 	sub	x0, x8, #0x1
  200db0:	f0000008 	adrp	x8, 203000 <_ZN4core9panicking9panic_fmt17hf8c9ba6c2299d6edE+0xb38>
  200db4:	9128e108 	add	x8, x8, #0xa38
  200db8:	aa0203e1 	mov	x1, x2
  200dbc:	aa0803e2 	mov	x2, x8
  200dc0:	940005aa 	bl	202468 <_ZN4core9panicking18panic_bounds_check17h210ff946a1327b86E>
  200dc4:	8b0a0048 	add	x8, x2, x10
  200dc8:	d1000d00 	sub	x0, x8, #0x3
  200dcc:	f0000008 	adrp	x8, 203000 <_ZN4core9panicking9panic_fmt17hf8c9ba6c2299d6edE+0xb38>
  200dd0:	9128e108 	add	x8, x8, #0xa38
  200dd4:	aa0203e1 	mov	x1, x2
  200dd8:	aa0803e2 	mov	x2, x8
  200ddc:	940005a3 	bl	202468 <_ZN4core9panicking18panic_bounds_check17h210ff946a1327b86E>
  200de0:	f0000008 	adrp	x8, 203000 <_ZN4core9panicking9panic_fmt17hf8c9ba6c2299d6edE+0xb38>
  200de4:	9128e108 	add	x8, x8, #0xa38
  200de8:	aa0903e0 	mov	x0, x9
  200dec:	aa0203e1 	mov	x1, x2
  200df0:	aa0803e2 	mov	x2, x8
  200df4:	9400059d 	bl	202468 <_ZN4core9panicking18panic_bounds_check17h210ff946a1327b86E>

0000000000200df8 <_ZN4core3fmt3num3imp21_$LT$impl$u20$u64$GT$10_fmt_inner17h160aed75b3a7f0e2E>:
  200df8:	a9bf7bfd 	stp	x29, x30, [sp, #-16]!
  200dfc:	910003fd 	mov	x29, sp
  200e00:	f10fa01f 	cmp	x0, #0x3e8
  200e04:	aa0003ea 	mov	x10, x0
  200e08:	aa0203e9 	mov	x9, x2
  200e0c:	540006c3 	b.cc	200ee4 <_ZN4core3fmt3num3imp21_$LT$impl$u20$u64$GT$10_fmt_inner17h160aed75b3a7f0e2E+0xec>  // b.lo, b.ul, b.last
  200e10:	d28b296c 	mov	x12, #0x594b                	// #22859
  200e14:	5292cff1 	mov	w17, #0x967f                	// #38527
  200e18:	aa1f03e9 	mov	x9, xzr
  200e1c:	f2a710cc 	movk	x12, #0x3886, lsl #16
  200e20:	d100082b 	sub	x11, x1, #0x2
  200e24:	5284e20d 	mov	w13, #0x2710                	// #10000
  200e28:	f2d8bacc 	movk	x12, #0xc5d6, lsl #32
  200e2c:	52828f6e 	mov	w14, #0x147b                	// #5243
  200e30:	f000000f 	adrp	x15, 203000 <_ZN4core9panicking9panic_fmt17hf8c9ba6c2299d6edE+0xb38>
  200e34:	9125c1ef 	add	x15, x15, #0x970
  200e38:	f2e68dac 	movk	x12, #0x346d, lsl #48
  200e3c:	52800c90 	mov	w16, #0x64                  	// #100
  200e40:	72a01311 	movk	w17, #0x98, lsl #16
  200e44:	aa0003f2 	mov	x18, x0
  200e48:	8b090045 	add	x5, x2, x9
  200e4c:	d10010a8 	sub	x8, x5, #0x4
  200e50:	eb02011f 	cmp	x8, x2
  200e54:	540009a2 	b.cs	200f88 <_ZN4core3fmt3num3imp21_$LT$impl$u20$u64$GT$10_fmt_inner17h160aed75b3a7f0e2E+0x190>  // b.hs, b.nlast
  200e58:	9bcc7e48 	umulh	x8, x18, x12
  200e5c:	d1000ca7 	sub	x7, x5, #0x3
  200e60:	8b020165 	add	x5, x11, x2
  200e64:	eb0200ff 	cmp	x7, x2
  200e68:	d34bfd0a 	lsr	x10, x8, #11
  200e6c:	1b0dc943 	msub	w3, w10, w13, w18
  200e70:	53023c68 	ubfx	w8, w3, #2, #14
  200e74:	1b0e7d08 	mul	w8, w8, w14
  200e78:	53117d04 	lsr	w4, w8, #17
  200e7c:	8b2445e8 	add	x8, x15, w4, uxtw #1
  200e80:	39400106 	ldrb	w6, [x8]
  200e84:	381fe0a6 	sturb	w6, [x5, #-2]
  200e88:	540009a2 	b.cs	200fbc <_ZN4core3fmt3num3imp21_$LT$impl$u20$u64$GT$10_fmt_inner17h160aed75b3a7f0e2E+0x1c4>  // b.hs, b.nlast
  200e8c:	8b090046 	add	x6, x2, x9
  200e90:	39400507 	ldrb	w7, [x8, #1]
  200e94:	d10008c8 	sub	x8, x6, #0x2
  200e98:	eb02011f 	cmp	x8, x2
  200e9c:	381ff0a7 	sturb	w7, [x5, #-1]
  200ea0:	54000742 	b.cs	200f88 <_ZN4core3fmt3num3imp21_$LT$impl$u20$u64$GT$10_fmt_inner17h160aed75b3a7f0e2E+0x190>  // b.hs, b.nlast
  200ea4:	1b108c88 	msub	w8, w4, w16, w3
  200ea8:	d10004c3 	sub	x3, x6, #0x1
  200eac:	eb02007f 	cmp	x3, x2
  200eb0:	8b2825e8 	add	x8, x15, w8, uxth #1
  200eb4:	39400104 	ldrb	w4, [x8]
  200eb8:	38226964 	strb	w4, [x11, x2]
  200ebc:	54000722 	b.cs	200fa0 <_ZN4core3fmt3num3imp21_$LT$impl$u20$u64$GT$10_fmt_inner17h160aed75b3a7f0e2E+0x1a8>  // b.hs, b.nlast
  200ec0:	39400508 	ldrb	w8, [x8, #1]
  200ec4:	8b020163 	add	x3, x11, x2
  200ec8:	eb11025f 	cmp	x18, x17
  200ecc:	d1001129 	sub	x9, x9, #0x4
  200ed0:	d100116b 	sub	x11, x11, #0x4
  200ed4:	aa0a03f2 	mov	x18, x10
  200ed8:	39000468 	strb	w8, [x3, #1]
  200edc:	54fffb68 	b.hi	200e48 <_ZN4core3fmt3num3imp21_$LT$impl$u20$u64$GT$10_fmt_inner17h160aed75b3a7f0e2E+0x50>  // b.pmore
  200ee0:	8b090049 	add	x9, x2, x9
  200ee4:	f100255f 	cmp	x10, #0x9
  200ee8:	540002e9 	b.ls	200f44 <_ZN4core3fmt3num3imp21_$LT$impl$u20$u64$GT$10_fmt_inner17h160aed75b3a7f0e2E+0x14c>  // b.plast
  200eec:	d1000928 	sub	x8, x9, #0x2
  200ef0:	eb02011f 	cmp	x8, x2
  200ef4:	540004a2 	b.cs	200f88 <_ZN4core3fmt3num3imp21_$LT$impl$u20$u64$GT$10_fmt_inner17h160aed75b3a7f0e2E+0x190>  // b.hs, b.nlast
  200ef8:	2a0a03eb 	mov	w11, w10
  200efc:	53023d4a 	ubfx	w10, w10, #2, #14
  200f00:	52828f6c 	mov	w12, #0x147b                	// #5243
  200f04:	d1000529 	sub	x9, x9, #0x1
  200f08:	1b0c7d4a 	mul	w10, w10, w12
  200f0c:	52800c8c 	mov	w12, #0x64                  	// #100
  200f10:	eb02013f 	cmp	x9, x2
  200f14:	53117d4a 	lsr	w10, w10, #17
  200f18:	1b0cad4b 	msub	w11, w10, w12, w11
  200f1c:	f000000c 	adrp	x12, 203000 <_ZN4core9panicking9panic_fmt17hf8c9ba6c2299d6edE+0xb38>
  200f20:	9125c18c 	add	x12, x12, #0x970
  200f24:	8b2b258b 	add	x11, x12, w11, uxth #1
  200f28:	3940016c 	ldrb	w12, [x11]
  200f2c:	3828682c 	strb	w12, [x1, x8]
  200f30:	54000542 	b.cs	200fd8 <_ZN4core3fmt3num3imp21_$LT$impl$u20$u64$GT$10_fmt_inner17h160aed75b3a7f0e2E+0x1e0>  // b.hs, b.nlast
  200f34:	3940056b 	ldrb	w11, [x11, #1]
  200f38:	3829682b 	strb	w11, [x1, x9]
  200f3c:	b5000080 	cbnz	x0, 200f4c <_ZN4core3fmt3num3imp21_$LT$impl$u20$u64$GT$10_fmt_inner17h160aed75b3a7f0e2E+0x154>
  200f40:	14000007 	b	200f5c <_ZN4core3fmt3num3imp21_$LT$impl$u20$u64$GT$10_fmt_inner17h160aed75b3a7f0e2E+0x164>
  200f44:	aa0903e8 	mov	x8, x9
  200f48:	b40000a0 	cbz	x0, 200f5c <_ZN4core3fmt3num3imp21_$LT$impl$u20$u64$GT$10_fmt_inner17h160aed75b3a7f0e2E+0x164>
  200f4c:	b500008a 	cbnz	x10, 200f5c <_ZN4core3fmt3num3imp21_$LT$impl$u20$u64$GT$10_fmt_inner17h160aed75b3a7f0e2E+0x164>
  200f50:	aa0803e0 	mov	x0, x8
  200f54:	a8c17bfd 	ldp	x29, x30, [sp], #16
  200f58:	d65f03c0 	ret
  200f5c:	d1000508 	sub	x8, x8, #0x1
  200f60:	eb02011f 	cmp	x8, x2
  200f64:	54000122 	b.cs	200f88 <_ZN4core3fmt3num3imp21_$LT$impl$u20$u64$GT$10_fmt_inner17h160aed75b3a7f0e2E+0x190>  // b.hs, b.nlast
  200f68:	f0000009 	adrp	x9, 203000 <_ZN4core9panicking9panic_fmt17hf8c9ba6c2299d6edE+0xb38>
  200f6c:	9125c129 	add	x9, x9, #0x970
  200f70:	8b0a0529 	add	x9, x9, x10, lsl #1
  200f74:	39400529 	ldrb	w9, [x9, #1]
  200f78:	38286829 	strb	w9, [x1, x8]
  200f7c:	aa0803e0 	mov	x0, x8
  200f80:	a8c17bfd 	ldp	x29, x30, [sp], #16
  200f84:	d65f03c0 	ret
  200f88:	f0000009 	adrp	x9, 203000 <_ZN4core9panicking9panic_fmt17hf8c9ba6c2299d6edE+0xb38>
  200f8c:	9128e129 	add	x9, x9, #0xa38
  200f90:	aa0803e0 	mov	x0, x8
  200f94:	aa0203e1 	mov	x1, x2
  200f98:	aa0903e2 	mov	x2, x9
  200f9c:	94000533 	bl	202468 <_ZN4core9panicking18panic_bounds_check17h210ff946a1327b86E>
  200fa0:	8b090048 	add	x8, x2, x9
  200fa4:	d1000500 	sub	x0, x8, #0x1
  200fa8:	f0000008 	adrp	x8, 203000 <_ZN4core9panicking9panic_fmt17hf8c9ba6c2299d6edE+0xb38>
  200fac:	9128e108 	add	x8, x8, #0xa38
  200fb0:	aa0203e1 	mov	x1, x2
  200fb4:	aa0803e2 	mov	x2, x8
  200fb8:	9400052c 	bl	202468 <_ZN4core9panicking18panic_bounds_check17h210ff946a1327b86E>
  200fbc:	8b090048 	add	x8, x2, x9
  200fc0:	d1000d00 	sub	x0, x8, #0x3
  200fc4:	f0000008 	adrp	x8, 203000 <_ZN4core9panicking9panic_fmt17hf8c9ba6c2299d6edE+0xb38>
  200fc8:	9128e108 	add	x8, x8, #0xa38
  200fcc:	aa0203e1 	mov	x1, x2
  200fd0:	aa0803e2 	mov	x2, x8
  200fd4:	94000525 	bl	202468 <_ZN4core9panicking18panic_bounds_check17h210ff946a1327b86E>
  200fd8:	f0000008 	adrp	x8, 203000 <_ZN4core9panicking9panic_fmt17hf8c9ba6c2299d6edE+0xb38>
  200fdc:	9128e108 	add	x8, x8, #0xa38
  200fe0:	aa0903e0 	mov	x0, x9
  200fe4:	aa0203e1 	mov	x1, x2
  200fe8:	aa0803e2 	mov	x2, x8
  200fec:	9400051f 	bl	202468 <_ZN4core9panicking18panic_bounds_check17h210ff946a1327b86E>

0000000000200ff0 <_ZN4core3fmt3num3imp52_$LT$impl$u20$core..fmt..Display$u20$for$u20$i32$GT$3fmt17h54e0569a8f948ea9E>:
  200ff0:	d10103ff 	sub	sp, sp, #0x40
  200ff4:	a9017bfd 	stp	x29, x30, [sp, #16]
  200ff8:	a90257f6 	stp	x22, x21, [sp, #32]
  200ffc:	a9034ff4 	stp	x20, x19, [sp, #48]
  201000:	910043fd 	add	x29, sp, #0x10
  201004:	b9400014 	ldr	w20, [x0]
  201008:	aa0103f3 	mov	x19, x1
  20100c:	91001be1 	add	x1, sp, #0x6
  201010:	52800142 	mov	w2, #0xa                   	// #10
  201014:	52800155 	mov	w21, #0xa                   	// #10
  201018:	91001bf6 	add	x22, sp, #0x6
  20101c:	7100029f 	cmp	w20, #0x0
  201020:	5a945680 	cneg	w0, w20, mi	// mi = first
  201024:	97fffef8 	bl	200c04 <_ZN4core3fmt3num3imp21_$LT$impl$u20$u32$GT$10_fmt_inner17h32293f8b061dea48E>
  201028:	2a3403e8 	mvn	w8, w20
  20102c:	cb0002a5 	sub	x5, x21, x0
  201030:	8b0002c4 	add	x4, x22, x0
  201034:	531f7d01 	lsr	w1, w8, #31
  201038:	aa1303e0 	mov	x0, x19
  20103c:	52800022 	mov	w2, #0x1                   	// #1
  201040:	aa1f03e3 	mov	x3, xzr
  201044:	940000da 	bl	2013ac <_ZN4core3fmt9Formatter12pad_integral17h3794e58e22a1883aE>
  201048:	a9434ff4 	ldp	x20, x19, [sp, #48]
  20104c:	a94257f6 	ldp	x22, x21, [sp, #32]
  201050:	a9417bfd 	ldp	x29, x30, [sp, #16]
  201054:	910103ff 	add	sp, sp, #0x40
  201058:	d65f03c0 	ret

000000000020105c <_ZN4core3fmt3num3imp52_$LT$impl$u20$core..fmt..Display$u20$for$u20$u64$GT$3fmt17habbc1d4a68f4ded1E>:
  20105c:	d10143ff 	sub	sp, sp, #0x50
  201060:	a9027bfd 	stp	x29, x30, [sp, #32]
  201064:	f9001bf5 	str	x21, [sp, #48]
  201068:	a9044ff4 	stp	x20, x19, [sp, #64]
  20106c:	910083fd 	add	x29, sp, #0x20
  201070:	f9400000 	ldr	x0, [x0]
  201074:	aa0103f3 	mov	x19, x1
  201078:	910033e1 	add	x1, sp, #0xc
  20107c:	52800282 	mov	w2, #0x14                  	// #20
  201080:	52800294 	mov	w20, #0x14                  	// #20
  201084:	910033f5 	add	x21, sp, #0xc
  201088:	97ffff5c 	bl	200df8 <_ZN4core3fmt3num3imp21_$LT$impl$u20$u64$GT$10_fmt_inner17h160aed75b3a7f0e2E>
  20108c:	cb000285 	sub	x5, x20, x0
  201090:	8b0002a4 	add	x4, x21, x0
  201094:	aa1303e0 	mov	x0, x19
  201098:	52800021 	mov	w1, #0x1                   	// #1
  20109c:	52800022 	mov	w2, #0x1                   	// #1
  2010a0:	aa1f03e3 	mov	x3, xzr
  2010a4:	940000c2 	bl	2013ac <_ZN4core3fmt9Formatter12pad_integral17h3794e58e22a1883aE>
  2010a8:	a9444ff4 	ldp	x20, x19, [sp, #64]
  2010ac:	f9401bf5 	ldr	x21, [sp, #48]
  2010b0:	a9427bfd 	ldp	x29, x30, [sp, #32]
  2010b4:	910143ff 	add	sp, sp, #0x50
  2010b8:	d65f03c0 	ret

00000000002010bc <_ZN4core3fmt3num53_$LT$impl$u20$core..fmt..UpperHex$u20$for$u20$u32$GT$3fmt17h578f3fe60630e086E>:
  2010bc:	d10083ff 	sub	sp, sp, #0x20
  2010c0:	a9017bfd 	stp	x29, x30, [sp, #16]
  2010c4:	910043fd 	add	x29, sp, #0x10
  2010c8:	b940000a 	ldr	w10, [x0]
  2010cc:	aa1f03e8 	mov	x8, xzr
  2010d0:	910023e9 	add	x9, sp, #0x8
  2010d4:	d000000b 	adrp	x11, 203000 <_ZN4core9panicking9panic_fmt17hf8c9ba6c2299d6edE+0xb38>
  2010d8:	9125416b 	add	x11, x11, #0x950
  2010dc:	92400d4c 	and	x12, x10, #0xf
  2010e0:	53047d4d 	lsr	w13, w10, #4
  2010e4:	71003d5f 	cmp	w10, #0xf
  2010e8:	386c696c 	ldrb	w12, [x11, x12]
  2010ec:	8b08012a 	add	x10, x9, x8
  2010f0:	d1000508 	sub	x8, x8, #0x1
  2010f4:	39001d4c 	strb	w12, [x10, #7]
  2010f8:	2a0d03ea 	mov	w10, w13
  2010fc:	54ffff08 	b.hi	2010dc <_ZN4core3fmt3num53_$LT$impl$u20$core..fmt..UpperHex$u20$for$u20$u32$GT$3fmt17h578f3fe60630e086E+0x20>  // b.pmore
  201100:	910023e9 	add	x9, sp, #0x8
  201104:	cb0803e5 	neg	x5, x8
  201108:	d0000002 	adrp	x2, 203000 <_ZN4core9panicking9panic_fmt17hf8c9ba6c2299d6edE+0xb38>
  20110c:	91294042 	add	x2, x2, #0xa50
  201110:	8b080129 	add	x9, x9, x8
  201114:	aa0103e0 	mov	x0, x1
  201118:	91002124 	add	x4, x9, #0x8
  20111c:	52800021 	mov	w1, #0x1                   	// #1
  201120:	52800043 	mov	w3, #0x2                   	// #2
  201124:	940000a2 	bl	2013ac <_ZN4core3fmt9Formatter12pad_integral17h3794e58e22a1883aE>
  201128:	a9417bfd 	ldp	x29, x30, [sp, #16]
  20112c:	910083ff 	add	sp, sp, #0x20
  201130:	d65f03c0 	ret

0000000000201134 <_ZN4core3fmt5write17h4e09d17c17eebf64E>:
  201134:	d101c3ff 	sub	sp, sp, #0x70
  201138:	a9027bfd 	stp	x29, x30, [sp, #32]
  20113c:	a90367fa 	stp	x26, x25, [sp, #48]
  201140:	a9045ff8 	stp	x24, x23, [sp, #64]
  201144:	a90557f6 	stp	x22, x21, [sp, #80]
  201148:	a9064ff4 	stp	x20, x19, [sp, #96]
  20114c:	910083fd 	add	x29, sp, #0x20
  201150:	aa0303f3 	mov	x19, x3
  201154:	aa0103f5 	mov	x21, x1
  201158:	aa0003f4 	mov	x20, x0
  20115c:	37000b93 	tbnz	w19, #0, 2012cc <_ZN4core3fmt5write17h4e09d17c17eebf64E+0x198>
  201160:	39400048 	ldrb	w8, [x2]
  201164:	34000cc8 	cbz	w8, 2012fc <_ZN4core3fmt5write17h4e09d17c17eebf64E+0x1c8>
  201168:	f9400eb8 	ldr	x24, [x21, #24]
  20116c:	5280041a 	mov	w26, #0x20                  	// #32
  201170:	aa1f03f9 	mov	x25, xzr
  201174:	72ac001a 	movk	w26, #0x6000, lsl #16
  201178:	1400000c 	b	2011a8 <_ZN4core3fmt5write17h4e09d17c17eebf64E+0x74>
  20117c:	8b191268 	add	x8, x19, x25, lsl #4
  201180:	910023e1 	add	x1, sp, #0x8
  201184:	a9016bf5 	stp	x21, x26, [sp, #16]
  201188:	f90007f4 	str	x20, [sp, #8]
  20118c:	a9402100 	ldp	x0, x8, [x8]
  201190:	d63f0100 	blr	x8
  201194:	37000b80 	tbnz	w0, #0, 201304 <_ZN4core3fmt5write17h4e09d17c17eebf64E+0x1d0>
  201198:	91000739 	add	x25, x25, #0x1
  20119c:	394002c8 	ldrb	w8, [x22]
  2011a0:	aa1603e2 	mov	x2, x22
  2011a4:	34000ac8 	cbz	w8, 2012fc <_ZN4core3fmt5write17h4e09d17c17eebf64E+0x1c8>
  2011a8:	91000456 	add	x22, x2, #0x1
  2011ac:	37380128 	tbnz	w8, #7, 2011d0 <_ZN4core3fmt5write17h4e09d17c17eebf64E+0x9c>
  2011b0:	2a0803f7 	mov	w23, w8
  2011b4:	aa1403e0 	mov	x0, x20
  2011b8:	aa1603e1 	mov	x1, x22
  2011bc:	aa1703e2 	mov	x2, x23
  2011c0:	d63f0300 	blr	x24
  2011c4:	37000a00 	tbnz	w0, #0, 201304 <_ZN4core3fmt5write17h4e09d17c17eebf64E+0x1d0>
  2011c8:	8b1702d6 	add	x22, x22, x23
  2011cc:	17fffff4 	b	20119c <_ZN4core3fmt5write17h4e09d17c17eebf64E+0x68>
  2011d0:	7102011f 	cmp	w8, #0x80
  2011d4:	54000200 	b.eq	201214 <_ZN4core3fmt5write17h4e09d17c17eebf64E+0xe0>  // b.none
  2011d8:	7103011f 	cmp	w8, #0xc0
  2011dc:	54fffd00 	b.eq	20117c <_ZN4core3fmt5write17h4e09d17c17eebf64E+0x48>  // b.none
  2011e0:	37000308 	tbnz	w8, #0, 201240 <_ZN4core3fmt5write17h4e09d17c17eebf64E+0x10c>
  2011e4:	52800409 	mov	w9, #0x20                  	// #32
  2011e8:	72ac0009 	movk	w9, #0x6000, lsl #16
  2011ec:	360803e8 	tbz	w8, #1, 201268 <_ZN4core3fmt5write17h4e09d17c17eebf64E+0x134>
  2011f0:	394006ca 	ldrb	w10, [x22, #1]
  2011f4:	384026cb 	ldrb	w11, [x22], #2
  2011f8:	aa0a216a 	orr	x10, x11, x10, lsl #8
  2011fc:	361003a8 	tbz	w8, #2, 201270 <_ZN4core3fmt5write17h4e09d17c17eebf64E+0x13c>
  201200:	394006cb 	ldrb	w11, [x22, #1]
  201204:	384026cc 	ldrb	w12, [x22], #2
  201208:	aa0b218b 	orr	x11, x12, x11, lsl #8
  20120c:	37180368 	tbnz	w8, #3, 201278 <_ZN4core3fmt5write17h4e09d17c17eebf64E+0x144>
  201210:	1400001d 	b	201284 <_ZN4core3fmt5write17h4e09d17c17eebf64E+0x150>
  201214:	39400848 	ldrb	w8, [x2, #2]
  201218:	39400449 	ldrb	w9, [x2, #1]
  20121c:	91000c57 	add	x23, x2, #0x3
  201220:	aa1403e0 	mov	x0, x20
  201224:	aa1703e1 	mov	x1, x23
  201228:	aa082136 	orr	x22, x9, x8, lsl #8
  20122c:	aa1603e2 	mov	x2, x22
  201230:	d63f0300 	blr	x24
  201234:	37000680 	tbnz	w0, #0, 201304 <_ZN4core3fmt5write17h4e09d17c17eebf64E+0x1d0>
  201238:	8b1602f6 	add	x22, x23, x22
  20123c:	17ffffd8 	b	20119c <_ZN4core3fmt5write17h4e09d17c17eebf64E+0x68>
  201240:	38401c49 	ldrb	w9, [x2, #1]!
  201244:	3940084a 	ldrb	w10, [x2, #2]
  201248:	3940044b 	ldrb	w11, [x2, #1]
  20124c:	39400c4c 	ldrb	w12, [x2, #3]
  201250:	91001056 	add	x22, x2, #0x4
  201254:	53103d4a 	lsl	w10, w10, #16
  201258:	2a0b2129 	orr	w9, w9, w11, lsl #8
  20125c:	2a0c614a 	orr	w10, w10, w12, lsl #24
  201260:	2a090149 	orr	w9, w10, w9
  201264:	370ffc68 	tbnz	w8, #1, 2011f0 <_ZN4core3fmt5write17h4e09d17c17eebf64E+0xbc>
  201268:	aa1f03ea 	mov	x10, xzr
  20126c:	3717fca8 	tbnz	w8, #2, 201200 <_ZN4core3fmt5write17h4e09d17c17eebf64E+0xcc>
  201270:	aa1f03eb 	mov	x11, xzr
  201274:	36180088 	tbz	w8, #3, 201284 <_ZN4core3fmt5write17h4e09d17c17eebf64E+0x150>
  201278:	394006cc 	ldrb	w12, [x22, #1]
  20127c:	384026cd 	ldrb	w13, [x22], #2
  201280:	aa0c21b9 	orr	x25, x13, x12, lsl #8
  201284:	372001c8 	tbnz	w8, #4, 2012bc <_ZN4core3fmt5write17h4e09d17c17eebf64E+0x188>
  201288:	36280068 	tbz	w8, #5, 201294 <_ZN4core3fmt5write17h4e09d17c17eebf64E+0x160>
  20128c:	8b0b1268 	add	x8, x19, x11, lsl #4
  201290:	7940110b 	ldrh	w11, [x8, #8]
  201294:	8b191268 	add	x8, x19, x25, lsl #4
  201298:	910023e1 	add	x1, sp, #0x8
  20129c:	b9001be9 	str	w9, [sp, #24]
  2012a0:	79003bea 	strh	w10, [sp, #28]
  2012a4:	a9402100 	ldp	x0, x8, [x8]
  2012a8:	79003feb 	strh	w11, [sp, #30]
  2012ac:	a900d7f4 	stp	x20, x21, [sp, #8]
  2012b0:	d63f0100 	blr	x8
  2012b4:	3607f720 	tbz	w0, #0, 201198 <_ZN4core3fmt5write17h4e09d17c17eebf64E+0x64>
  2012b8:	14000013 	b	201304 <_ZN4core3fmt5write17h4e09d17c17eebf64E+0x1d0>
  2012bc:	8b0a126a 	add	x10, x19, x10, lsl #4
  2012c0:	7940114a 	ldrh	w10, [x10, #8]
  2012c4:	372ffe48 	tbnz	w8, #5, 20128c <_ZN4core3fmt5write17h4e09d17c17eebf64E+0x158>
  2012c8:	17fffff3 	b	201294 <_ZN4core3fmt5write17h4e09d17c17eebf64E+0x160>
  2012cc:	d341fe68 	lsr	x8, x19, #1
  2012d0:	f9400ea3 	ldr	x3, [x21, #24]
  2012d4:	aa1403e0 	mov	x0, x20
  2012d8:	aa0203e1 	mov	x1, x2
  2012dc:	aa0803e2 	mov	x2, x8
  2012e0:	a9464ff4 	ldp	x20, x19, [sp, #96]
  2012e4:	a94557f6 	ldp	x22, x21, [sp, #80]
  2012e8:	a9445ff8 	ldp	x24, x23, [sp, #64]
  2012ec:	a94367fa 	ldp	x26, x25, [sp, #48]
  2012f0:	a9427bfd 	ldp	x29, x30, [sp, #32]
  2012f4:	9101c3ff 	add	sp, sp, #0x70
  2012f8:	d61f0060 	br	x3
  2012fc:	2a1f03e0 	mov	w0, wzr
  201300:	14000002 	b	201308 <_ZN4core3fmt5write17h4e09d17c17eebf64E+0x1d4>
  201304:	52800020 	mov	w0, #0x1                   	// #1
  201308:	a9464ff4 	ldp	x20, x19, [sp, #96]
  20130c:	a94557f6 	ldp	x22, x21, [sp, #80]
  201310:	a9445ff8 	ldp	x24, x23, [sp, #64]
  201314:	a94367fa 	ldp	x26, x25, [sp, #48]
  201318:	a9427bfd 	ldp	x29, x30, [sp, #32]
  20131c:	9101c3ff 	add	sp, sp, #0x70
  201320:	d65f03c0 	ret

0000000000201324 <_ZN4core3fmt9Formatter12pad_integral12write_prefix17hd51b9bff46c071cbE>:
  201324:	a9bd7bfd 	stp	x29, x30, [sp, #-48]!
  201328:	a90157f6 	stp	x22, x21, [sp, #16]
  20132c:	a9024ff4 	stp	x20, x19, [sp, #32]
  201330:	910003fd 	mov	x29, sp
  201334:	aa0403f3 	mov	x19, x4
  201338:	aa0303f4 	mov	x20, x3
  20133c:	aa0103f5 	mov	x21, x1
  201340:	7144405f 	cmp	w2, #0x110, lsl #12
  201344:	540001a0 	b.eq	201378 <_ZN4core3fmt9Formatter12pad_integral12write_prefix17hd51b9bff46c071cbE+0x54>  // b.none
  201348:	f94012a8 	ldr	x8, [x21, #32]
  20134c:	2a0203e1 	mov	w1, w2
  201350:	aa0003f6 	mov	x22, x0
  201354:	d63f0100 	blr	x8
  201358:	2a0003e8 	mov	w8, w0
  20135c:	aa1603e0 	mov	x0, x22
  201360:	360000c8 	tbz	w8, #0, 201378 <_ZN4core3fmt9Formatter12pad_integral12write_prefix17hd51b9bff46c071cbE+0x54>
  201364:	52800020 	mov	w0, #0x1                   	// #1
  201368:	a9424ff4 	ldp	x20, x19, [sp, #32]
  20136c:	a94157f6 	ldp	x22, x21, [sp, #16]
  201370:	a8c37bfd 	ldp	x29, x30, [sp], #48
  201374:	d65f03c0 	ret
  201378:	b4000114 	cbz	x20, 201398 <_ZN4core3fmt9Formatter12pad_integral12write_prefix17hd51b9bff46c071cbE+0x74>
  20137c:	f9400ea3 	ldr	x3, [x21, #24]
  201380:	aa1403e1 	mov	x1, x20
  201384:	aa1303e2 	mov	x2, x19
  201388:	a9424ff4 	ldp	x20, x19, [sp, #32]
  20138c:	a94157f6 	ldp	x22, x21, [sp, #16]
  201390:	a8c37bfd 	ldp	x29, x30, [sp], #48
  201394:	d61f0060 	br	x3
  201398:	2a1f03e0 	mov	w0, wzr
  20139c:	a9424ff4 	ldp	x20, x19, [sp, #32]
  2013a0:	a94157f6 	ldp	x22, x21, [sp, #16]
  2013a4:	a8c37bfd 	ldp	x29, x30, [sp], #48
  2013a8:	d65f03c0 	ret

00000000002013ac <_ZN4core3fmt9Formatter12pad_integral17h3794e58e22a1883aE>:
  2013ac:	d101c3ff 	sub	sp, sp, #0x70
  2013b0:	a9017bfd 	stp	x29, x30, [sp, #16]
  2013b4:	a9026ffc 	stp	x28, x27, [sp, #32]
  2013b8:	a90367fa 	stp	x26, x25, [sp, #48]
  2013bc:	a9045ff8 	stp	x24, x23, [sp, #64]
  2013c0:	a90557f6 	stp	x22, x21, [sp, #80]
  2013c4:	a9064ff4 	stp	x20, x19, [sp, #96]
  2013c8:	910043fd 	add	x29, sp, #0x10
  2013cc:	aa0503f3 	mov	x19, x5
  2013d0:	aa0403fc 	mov	x28, x4
  2013d4:	aa0303f6 	mov	x22, x3
  2013d8:	aa0203f7 	mov	x23, x2
  2013dc:	aa0003f5 	mov	x21, x0
  2013e0:	36000221 	tbz	w1, #0, 201424 <_ZN4core3fmt9Formatter12pad_integral17h3794e58e22a1883aE+0x78>
  2013e4:	b94012ba 	ldr	w26, [x21, #16]
  2013e8:	52800569 	mov	w9, #0x2b                  	// #43
  2013ec:	52a0022a 	mov	w10, #0x110000              	// #1114112
  2013f0:	926b0348 	and	x8, x26, #0x200000
  2013f4:	7100011f 	cmp	w8, #0x0
  2013f8:	8b48567b 	add	x27, x19, x8, lsr #21
  2013fc:	1a890158 	csel	w24, w10, w9, eq	// eq = none
  201400:	36b801ba 	tbz	w26, #23, 201434 <_ZN4core3fmt9Formatter12pad_integral17h3794e58e22a1883aE+0x88>
  201404:	f10082df 	cmp	x22, #0x20
  201408:	54000462 	b.cs	201494 <_ZN4core3fmt9Formatter12pad_integral17h3794e58e22a1883aE+0xe8>  // b.hs, b.nlast
  20140c:	b40004d6 	cbz	x22, 2014a4 <_ZN4core3fmt9Formatter12pad_integral17h3794e58e22a1883aE+0xf8>
  201410:	f10022df 	cmp	x22, #0x8
  201414:	540004c2 	b.cs	2014ac <_ZN4core3fmt9Formatter12pad_integral17h3794e58e22a1883aE+0x100>  // b.hs, b.nlast
  201418:	aa1f03e8 	mov	x8, xzr
  20141c:	aa1f03e0 	mov	x0, xzr
  201420:	1400009c 	b	201690 <_ZN4core3fmt9Formatter12pad_integral17h3794e58e22a1883aE+0x2e4>
  201424:	b94012ba 	ldr	w26, [x21, #16]
  201428:	9100067b 	add	x27, x19, #0x1
  20142c:	528005b8 	mov	w24, #0x2d                  	// #45
  201430:	37bffeba 	tbnz	w26, #23, 201404 <_ZN4core3fmt9Formatter12pad_integral17h3794e58e22a1883aE+0x58>
  201434:	aa1f03f7 	mov	x23, xzr
  201438:	79402ab4 	ldrh	w20, [x21, #20]
  20143c:	eb14037f 	cmp	x27, x20
  201440:	540013e3 	b.cc	2016bc <_ZN4core3fmt9Formatter12pad_integral17h3794e58e22a1883aE+0x310>  // b.lo, b.ul, b.last
  201444:	a94056b9 	ldp	x25, x21, [x21]
  201448:	2a1803e2 	mov	w2, w24
  20144c:	aa1703e3 	mov	x3, x23
  201450:	aa1603e4 	mov	x4, x22
  201454:	aa1903e0 	mov	x0, x25
  201458:	aa1503e1 	mov	x1, x21
  20145c:	97ffffb2 	bl	201324 <_ZN4core3fmt9Formatter12pad_integral12write_prefix17hd51b9bff46c071cbE>
  201460:	37001c60 	tbnz	w0, #0, 2017ec <_ZN4core3fmt9Formatter12pad_integral17h3794e58e22a1883aE+0x440>
  201464:	f9400ea3 	ldr	x3, [x21, #24]
  201468:	aa1903e0 	mov	x0, x25
  20146c:	aa1c03e1 	mov	x1, x28
  201470:	aa1303e2 	mov	x2, x19
  201474:	a9464ff4 	ldp	x20, x19, [sp, #96]
  201478:	a94557f6 	ldp	x22, x21, [sp, #80]
  20147c:	a9445ff8 	ldp	x24, x23, [sp, #64]
  201480:	a94367fa 	ldp	x26, x25, [sp, #48]
  201484:	a9426ffc 	ldp	x28, x27, [sp, #32]
  201488:	a9417bfd 	ldp	x29, x30, [sp, #16]
  20148c:	9101c3ff 	add	sp, sp, #0x70
  201490:	d61f0060 	br	x3
  201494:	aa1703e0 	mov	x0, x23
  201498:	aa1603e1 	mov	x1, x22
  20149c:	940001ea 	bl	201c44 <_ZN4core3str5count14do_count_chars17hae3c2a457455db39E>
  2014a0:	14000083 	b	2016ac <_ZN4core3fmt9Formatter12pad_integral17h3794e58e22a1883aE+0x300>
  2014a4:	aa1f03e0 	mov	x0, xzr
  2014a8:	14000081 	b	2016ac <_ZN4core3fmt9Formatter12pad_integral17h3794e58e22a1883aE+0x300>
  2014ac:	aa1703ea 	mov	x10, x23
  2014b0:	39400ae9 	ldrb	w9, [x23, #2]
  2014b4:	394006e8 	ldrb	w8, [x23, #1]
  2014b8:	38404d4b 	ldrb	w11, [x10, #4]!
  2014bc:	3940094c 	ldrb	w12, [x10, #2]
  2014c0:	394002ed 	ldrb	w13, [x23]
  2014c4:	39400eee 	ldrb	w14, [x23, #3]
  2014c8:	d370bd29 	lsl	x9, x9, #16
  2014cc:	394016ef 	ldrb	w15, [x23, #5]
  2014d0:	39400d4a 	ldrb	w10, [x10, #3]
  2014d4:	53103d8c 	lsl	w12, w12, #16
  2014d8:	aa0821a8 	orr	x8, x13, x8, lsl #8
  2014dc:	aa0e6129 	orr	x9, x9, x14, lsl #24
  2014e0:	0f05e7e4 	movi	v4.8b, #0xbf
  2014e4:	2a0f216b 	orr	w11, w11, w15, lsl #8
  2014e8:	2a0a618a 	orr	w10, w12, w10, lsl #24
  2014ec:	aa080128 	orr	x8, x9, x8
  2014f0:	2a0b0149 	orr	w9, w10, w11
  2014f4:	aa098108 	orr	x8, x8, x9, lsl #32
  2014f8:	9e670100 	fmov	d0, x8
  2014fc:	52800028 	mov	w8, #0x1                   	// #1
  201500:	4e080d03 	dup	v3.2d, x8
  201504:	927d06c8 	and	x8, x22, #0x18
  201508:	f100211f 	cmp	x8, #0x8
  20150c:	0e243400 	cmgt	v0.8b, v0.8b, v4.8b
  201510:	2f08a400 	uxtl	v0.8h, v0.8b
  201514:	6f10a401 	uxtl2	v1.4s, v0.8h
  201518:	2f10a400 	uxtl	v0.4s, v0.4h
  20151c:	6f20a422 	uxtl2	v2.2d, v1.4s
  201520:	2f20a421 	uxtl	v1.2d, v1.2s
  201524:	6f20a405 	uxtl2	v5.2d, v0.4s
  201528:	2f20a406 	uxtl	v6.2d, v0.2s
  20152c:	4e231c40 	and	v0.16b, v2.16b, v3.16b
  201530:	4e231c22 	and	v2.16b, v1.16b, v3.16b
  201534:	4e231ca1 	and	v1.16b, v5.16b, v3.16b
  201538:	4e231cc3 	and	v3.16b, v6.16b, v3.16b
  20153c:	540009c0 	b.eq	201674 <_ZN4core3fmt9Formatter12pad_integral17h3794e58e22a1883aE+0x2c8>  // b.none
  201540:	aa1703e9 	mov	x9, x23
  201544:	f100411f 	cmp	x8, #0x10
  201548:	38408d2a 	ldrb	w10, [x9, #8]!
  20154c:	3940052b 	ldrb	w11, [x9, #1]
  201550:	39400d2c 	ldrb	w12, [x9, #3]
  201554:	3940092d 	ldrb	w13, [x9, #2]
  201558:	3940152e 	ldrb	w14, [x9, #5]
  20155c:	38404d2f 	ldrb	w15, [x9, #4]!
  201560:	39400930 	ldrb	w16, [x9, #2]
  201564:	39400d29 	ldrb	w9, [x9, #3]
  201568:	d370bdad 	lsl	x13, x13, #16
  20156c:	aa0b214a 	orr	x10, x10, x11, lsl #8
  201570:	53103e10 	lsl	w16, w16, #16
  201574:	2a0e21eb 	orr	w11, w15, w14, lsl #8
  201578:	aa0c61ac 	orr	x12, x13, x12, lsl #24
  20157c:	2a096209 	orr	w9, w16, w9, lsl #24
  201580:	aa0a018a 	orr	x10, x12, x10
  201584:	2a0b0129 	orr	w9, w9, w11
  201588:	aa098149 	orr	x9, x10, x9, lsl #32
  20158c:	9e670125 	fmov	d5, x9
  201590:	52800029 	mov	w9, #0x1                   	// #1
  201594:	4e080d26 	dup	v6.2d, x9
  201598:	0e2434a4 	cmgt	v4.8b, v5.8b, v4.8b
  20159c:	2f08a484 	uxtl	v4.8h, v4.8b
  2015a0:	6f10a485 	uxtl2	v5.4s, v4.8h
  2015a4:	2f10a484 	uxtl	v4.4s, v4.4h
  2015a8:	6f20a4a7 	uxtl2	v7.2d, v5.4s
  2015ac:	2f20a490 	uxtl	v16.2d, v4.2s
  2015b0:	6f20a484 	uxtl2	v4.2d, v4.4s
  2015b4:	2f20a4a5 	uxtl	v5.2d, v5.2s
  2015b8:	4e261ce7 	and	v7.16b, v7.16b, v6.16b
  2015bc:	4e261e10 	and	v16.16b, v16.16b, v6.16b
  2015c0:	4e261c84 	and	v4.16b, v4.16b, v6.16b
  2015c4:	4e261ca5 	and	v5.16b, v5.16b, v6.16b
  2015c8:	4ee78400 	add	v0.2d, v0.2d, v7.2d
  2015cc:	4ee48421 	add	v1.2d, v1.2d, v4.2d
  2015d0:	4ef08463 	add	v3.2d, v3.2d, v16.2d
  2015d4:	4ee58442 	add	v2.2d, v2.2d, v5.2d
  2015d8:	540004e0 	b.eq	201674 <_ZN4core3fmt9Formatter12pad_integral17h3794e58e22a1883aE+0x2c8>  // b.none
  2015dc:	aa1703e9 	mov	x9, x23
  2015e0:	0f05e7e4 	movi	v4.8b, #0xbf
  2015e4:	38410d2a 	ldrb	w10, [x9, #16]!
  2015e8:	3940052b 	ldrb	w11, [x9, #1]
  2015ec:	39400d2c 	ldrb	w12, [x9, #3]
  2015f0:	3940092d 	ldrb	w13, [x9, #2]
  2015f4:	3940152e 	ldrb	w14, [x9, #5]
  2015f8:	38404d2f 	ldrb	w15, [x9, #4]!
  2015fc:	39400930 	ldrb	w16, [x9, #2]
  201600:	39400d29 	ldrb	w9, [x9, #3]
  201604:	d370bdad 	lsl	x13, x13, #16
  201608:	aa0b214a 	orr	x10, x10, x11, lsl #8
  20160c:	53103e10 	lsl	w16, w16, #16
  201610:	2a0e21eb 	orr	w11, w15, w14, lsl #8
  201614:	aa0c61ac 	orr	x12, x13, x12, lsl #24
  201618:	2a096209 	orr	w9, w16, w9, lsl #24
  20161c:	aa0a018a 	orr	x10, x12, x10
  201620:	2a0b0129 	orr	w9, w9, w11
  201624:	aa098149 	orr	x9, x10, x9, lsl #32
  201628:	9e670125 	fmov	d5, x9
  20162c:	52800029 	mov	w9, #0x1                   	// #1
  201630:	4e080d26 	dup	v6.2d, x9
  201634:	0e2434a4 	cmgt	v4.8b, v5.8b, v4.8b
  201638:	2f08a484 	uxtl	v4.8h, v4.8b
  20163c:	6f10a485 	uxtl2	v5.4s, v4.8h
  201640:	2f10a484 	uxtl	v4.4s, v4.4h
  201644:	6f20a4a7 	uxtl2	v7.2d, v5.4s
  201648:	2f20a490 	uxtl	v16.2d, v4.2s
  20164c:	6f20a484 	uxtl2	v4.2d, v4.4s
  201650:	2f20a4a5 	uxtl	v5.2d, v5.2s
  201654:	4e261ce7 	and	v7.16b, v7.16b, v6.16b
  201658:	4e261e10 	and	v16.16b, v16.16b, v6.16b
  20165c:	4e261c84 	and	v4.16b, v4.16b, v6.16b
  201660:	4e261ca5 	and	v5.16b, v5.16b, v6.16b
  201664:	4ee78400 	add	v0.2d, v0.2d, v7.2d
  201668:	4ee48421 	add	v1.2d, v1.2d, v4.2d
  20166c:	4ef08463 	add	v3.2d, v3.2d, v16.2d
  201670:	4ee58442 	add	v2.2d, v2.2d, v5.2d
  201674:	4ee28462 	add	v2.2d, v3.2d, v2.2d
  201678:	4ee08420 	add	v0.2d, v1.2d, v0.2d
  20167c:	eb0802df 	cmp	x22, x8
  201680:	4ee08440 	add	v0.2d, v2.2d, v0.2d
  201684:	5ef1b800 	addp	d0, v0.2d
  201688:	9e660000 	fmov	x0, d0
  20168c:	54000100 	b.eq	2016ac <_ZN4core3fmt9Formatter12pad_integral17h3794e58e22a1883aE+0x300>  // b.none
  201690:	cb0802c9 	sub	x9, x22, x8
  201694:	8b0802e8 	add	x8, x23, x8
  201698:	38c0150a 	ldrsb	w10, [x8], #1
  20169c:	3101055f 	cmn	w10, #0x41
  2016a0:	9a80d400 	cinc	x0, x0, gt
  2016a4:	f1000529 	subs	x9, x9, #0x1
  2016a8:	54ffff81 	b.ne	201698 <_ZN4core3fmt9Formatter12pad_integral17h3794e58e22a1883aE+0x2ec>  // b.any
  2016ac:	8b1b001b 	add	x27, x0, x27
  2016b0:	79402ab4 	ldrh	w20, [x21, #20]
  2016b4:	eb14037f 	cmp	x27, x20
  2016b8:	54ffec62 	b.cs	201444 <_ZN4core3fmt9Formatter12pad_integral17h3794e58e22a1883aE+0x98>  // b.hs, b.nlast
  2016bc:	f90007fc 	str	x28, [sp, #8]
  2016c0:	37c0011a 	tbnz	w26, #24, 2016e0 <_ZN4core3fmt9Formatter12pad_integral17h3794e58e22a1883aE+0x334>
  2016c4:	531d7b48 	ubfx	w8, w26, #29, #2
  2016c8:	4b1b029b 	sub	w27, w20, w27
  2016cc:	7100051f 	cmp	w8, #0x1
  2016d0:	540003ec 	b.gt	20174c <_ZN4core3fmt9Formatter12pad_integral17h3794e58e22a1883aE+0x3a0>
  2016d4:	35000588 	cbnz	w8, 201784 <_ZN4core3fmt9Formatter12pad_integral17h3794e58e22a1883aE+0x3d8>
  2016d8:	2a1f03fc 	mov	w28, wzr
  2016dc:	1400002b 	b	201788 <_ZN4core3fmt9Formatter12pad_integral17h3794e58e22a1883aE+0x3dc>
  2016e0:	a940f2ba 	ldp	x26, x28, [x21, #8]
  2016e4:	52b3fc08 	mov	w8, #0x9fe00000            	// #-1612709888
  2016e8:	52800609 	mov	w9, #0x30                  	// #48
  2016ec:	f94002b9 	ldr	x25, [x21]
  2016f0:	2a1803e2 	mov	w2, w24
  2016f4:	72a40009 	movk	w9, #0x2000, lsl #16
  2016f8:	aa1703e3 	mov	x3, x23
  2016fc:	aa1603e4 	mov	x4, x22
  201700:	0a080388 	and	w8, w28, w8
  201704:	aa1903e0 	mov	x0, x25
  201708:	aa1a03e1 	mov	x1, x26
  20170c:	2a090108 	orr	w8, w8, w9
  201710:	b90012a8 	str	w8, [x21, #16]
  201714:	97ffff04 	bl	201324 <_ZN4core3fmt9Formatter12pad_integral12write_prefix17hd51b9bff46c071cbE>
  201718:	370006a0 	tbnz	w0, #0, 2017ec <_ZN4core3fmt9Formatter12pad_integral17h3794e58e22a1883aE+0x440>
  20171c:	2a1f03f6 	mov	w22, wzr
  201720:	4b1b0294 	sub	w20, w20, w27
  201724:	12003ec8 	and	w8, w22, #0xffff
  201728:	6b34211f 	cmp	w8, w20, uxth
  20172c:	540001a2 	b.cs	201760 <_ZN4core3fmt9Formatter12pad_integral17h3794e58e22a1883aE+0x3b4>  // b.hs, b.nlast
  201730:	f9401348 	ldr	x8, [x26, #32]
  201734:	aa1903e0 	mov	x0, x25
  201738:	52800601 	mov	w1, #0x30                  	// #48
  20173c:	110006d6 	add	w22, w22, #0x1
  201740:	d63f0100 	blr	x8
  201744:	3607ff00 	tbz	w0, #0, 201724 <_ZN4core3fmt9Formatter12pad_integral17h3794e58e22a1883aE+0x378>
  201748:	14000029 	b	2017ec <_ZN4core3fmt9Formatter12pad_integral17h3794e58e22a1883aE+0x440>
  20174c:	7100091f 	cmp	w8, #0x2
  201750:	2a1b03fc 	mov	w28, w27
  201754:	540001a1 	b.ne	201788 <_ZN4core3fmt9Formatter12pad_integral17h3794e58e22a1883aE+0x3dc>  // b.any
  201758:	53013f7c 	ubfx	w28, w27, #1, #15
  20175c:	1400000b 	b	201788 <_ZN4core3fmt9Formatter12pad_integral17h3794e58e22a1883aE+0x3dc>
  201760:	f9400f48 	ldr	x8, [x26, #24]
  201764:	f94007e1 	ldr	x1, [sp, #8]
  201768:	aa1903e0 	mov	x0, x25
  20176c:	aa1303e2 	mov	x2, x19
  201770:	d63f0100 	blr	x8
  201774:	370003c0 	tbnz	w0, #0, 2017ec <_ZN4core3fmt9Formatter12pad_integral17h3794e58e22a1883aE+0x440>
  201778:	2a1f03f3 	mov	w19, wzr
  20177c:	f9000abc 	str	x28, [x21, #16]
  201780:	1400001c 	b	2017f0 <_ZN4core3fmt9Formatter12pad_integral17h3794e58e22a1883aE+0x444>
  201784:	2a1b03fc 	mov	w28, w27
  201788:	a94056b9 	ldp	x25, x21, [x21]
  20178c:	2a1f03f4 	mov	w20, wzr
  201790:	12003e88 	and	w8, w20, #0xffff
  201794:	6b3c211f 	cmp	w8, w28, uxth
  201798:	54000102 	b.cs	2017b8 <_ZN4core3fmt9Formatter12pad_integral17h3794e58e22a1883aE+0x40c>  // b.hs, b.nlast
  20179c:	f94012a8 	ldr	x8, [x21, #32]
  2017a0:	12005341 	and	w1, w26, #0x1fffff
  2017a4:	aa1903e0 	mov	x0, x25
  2017a8:	11000694 	add	w20, w20, #0x1
  2017ac:	d63f0100 	blr	x8
  2017b0:	3607ff00 	tbz	w0, #0, 201790 <_ZN4core3fmt9Formatter12pad_integral17h3794e58e22a1883aE+0x3e4>
  2017b4:	1400000e 	b	2017ec <_ZN4core3fmt9Formatter12pad_integral17h3794e58e22a1883aE+0x440>
  2017b8:	aa1903e0 	mov	x0, x25
  2017bc:	aa1503e1 	mov	x1, x21
  2017c0:	2a1803e2 	mov	w2, w24
  2017c4:	aa1703e3 	mov	x3, x23
  2017c8:	aa1603e4 	mov	x4, x22
  2017cc:	97fffed6 	bl	201324 <_ZN4core3fmt9Formatter12pad_integral12write_prefix17hd51b9bff46c071cbE>
  2017d0:	370000e0 	tbnz	w0, #0, 2017ec <_ZN4core3fmt9Formatter12pad_integral17h3794e58e22a1883aE+0x440>
  2017d4:	f9400ea8 	ldr	x8, [x21, #24]
  2017d8:	f94007e1 	ldr	x1, [sp, #8]
  2017dc:	aa1903e0 	mov	x0, x25
  2017e0:	aa1303e2 	mov	x2, x19
  2017e4:	d63f0100 	blr	x8
  2017e8:	36000160 	tbz	w0, #0, 201814 <_ZN4core3fmt9Formatter12pad_integral17h3794e58e22a1883aE+0x468>
  2017ec:	52800033 	mov	w19, #0x1                   	// #1
  2017f0:	2a1303e0 	mov	w0, w19
  2017f4:	a9464ff4 	ldp	x20, x19, [sp, #96]
  2017f8:	a94557f6 	ldp	x22, x21, [sp, #80]
  2017fc:	a9445ff8 	ldp	x24, x23, [sp, #64]
  201800:	a94367fa 	ldp	x26, x25, [sp, #48]
  201804:	a9426ffc 	ldp	x28, x27, [sp, #32]
  201808:	a9417bfd 	ldp	x29, x30, [sp, #16]
  20180c:	9101c3ff 	add	sp, sp, #0x70
  201810:	d65f03c0 	ret
  201814:	2a1f03f4 	mov	w20, wzr
  201818:	4b1c0376 	sub	w22, w27, w28
  20181c:	12003e88 	and	w8, w20, #0xffff
  201820:	6b36211f 	cmp	w8, w22, uxth
  201824:	1a9f27f3 	cset	w19, cc	// cc = lo, ul, last
  201828:	54fffe42 	b.cs	2017f0 <_ZN4core3fmt9Formatter12pad_integral17h3794e58e22a1883aE+0x444>  // b.hs, b.nlast
  20182c:	f94012a8 	ldr	x8, [x21, #32]
  201830:	12005341 	and	w1, w26, #0x1fffff
  201834:	aa1903e0 	mov	x0, x25
  201838:	11000694 	add	w20, w20, #0x1
  20183c:	d63f0100 	blr	x8
  201840:	3607fee0 	tbz	w0, #0, 20181c <_ZN4core3fmt9Formatter12pad_integral17h3794e58e22a1883aE+0x470>
  201844:	17ffffeb 	b	2017f0 <_ZN4core3fmt9Formatter12pad_integral17h3794e58e22a1883aE+0x444>

0000000000201848 <_ZN4core3fmt9Formatter3pad17hd5e22725c7165dbdE>:
  201848:	a9bb7bfd 	stp	x29, x30, [sp, #-80]!
  20184c:	a90167fa 	stp	x26, x25, [sp, #16]
  201850:	a9025ff8 	stp	x24, x23, [sp, #32]
  201854:	a90357f6 	stp	x22, x21, [sp, #48]
  201858:	a9044ff4 	stp	x20, x19, [sp, #64]
  20185c:	910003fd 	mov	x29, sp
  201860:	b9401016 	ldr	w22, [x0, #16]
  201864:	aa0203f4 	mov	x20, x2
  201868:	aa0103f3 	mov	x19, x1
  20186c:	720506df 	tst	w22, #0x18000000
  201870:	540017c0 	b.eq	201b68 <_ZN4core3fmt9Formatter3pad17hd5e22725c7165dbdE+0x320>  // b.none
  201874:	37e00136 	tbnz	w22, #28, 201898 <_ZN4core3fmt9Formatter3pad17hd5e22725c7165dbdE+0x50>
  201878:	f100829f 	cmp	x20, #0x20
  20187c:	54000482 	b.cs	20190c <_ZN4core3fmt9Formatter3pad17hd5e22725c7165dbdE+0xc4>  // b.hs, b.nlast
  201880:	b40005b4 	cbz	x20, 201934 <_ZN4core3fmt9Formatter3pad17hd5e22725c7165dbdE+0xec>
  201884:	f100229f 	cmp	x20, #0x8
  201888:	540005a2 	b.cs	20193c <_ZN4core3fmt9Formatter3pad17hd5e22725c7165dbdE+0xf4>  // b.hs, b.nlast
  20188c:	aa1f03e9 	mov	x9, xzr
  201890:	aa1f03e8 	mov	x8, xzr
  201894:	140000a3 	b	201b20 <_ZN4core3fmt9Formatter3pad17hd5e22725c7165dbdE+0x2d8>
  201898:	79402c08 	ldrh	w8, [x0, #22]
  20189c:	b4000468 	cbz	x8, 201928 <_ZN4core3fmt9Formatter3pad17hd5e22725c7165dbdE+0xe0>
  2018a0:	8b14026a 	add	x10, x19, x20
  2018a4:	aa1303eb 	mov	x11, x19
  2018a8:	aa0803e9 	mov	x9, x8
  2018ac:	aa1f03f4 	mov	x20, xzr
  2018b0:	14000007 	b	2018cc <_ZN4core3fmt9Formatter3pad17hd5e22725c7165dbdE+0x84>
  2018b4:	9100096c 	add	x12, x11, #0x2
  2018b8:	cb0b018b 	sub	x11, x12, x11
  2018bc:	f1000529 	subs	x9, x9, #0x1
  2018c0:	8b140174 	add	x20, x11, x20
  2018c4:	aa0c03eb 	mov	x11, x12
  2018c8:	540001e0 	b.eq	201904 <_ZN4core3fmt9Formatter3pad17hd5e22725c7165dbdE+0xbc>  // b.none
  2018cc:	eb0a017f 	cmp	x11, x10
  2018d0:	540001a0 	b.eq	201904 <_ZN4core3fmt9Formatter3pad17hd5e22725c7165dbdE+0xbc>  // b.none
  2018d4:	aa0b03ec 	mov	x12, x11
  2018d8:	38c0158d 	ldrsb	w13, [x12], #1
  2018dc:	36fffeed 	tbz	w13, #31, 2018b8 <_ZN4core3fmt9Formatter3pad17hd5e22725c7165dbdE+0x70>
  2018e0:	12001dac 	and	w12, w13, #0xff
  2018e4:	7103819f 	cmp	w12, #0xe0
  2018e8:	54fffe63 	b.cc	2018b4 <_ZN4core3fmt9Formatter3pad17hd5e22725c7165dbdE+0x6c>  // b.lo, b.ul, b.last
  2018ec:	7103c19f 	cmp	w12, #0xf0
  2018f0:	54000063 	b.cc	2018fc <_ZN4core3fmt9Formatter3pad17hd5e22725c7165dbdE+0xb4>  // b.lo, b.ul, b.last
  2018f4:	9100116c 	add	x12, x11, #0x4
  2018f8:	17fffff0 	b	2018b8 <_ZN4core3fmt9Formatter3pad17hd5e22725c7165dbdE+0x70>
  2018fc:	91000d6c 	add	x12, x11, #0x3
  201900:	17ffffee 	b	2018b8 <_ZN4core3fmt9Formatter3pad17hd5e22725c7165dbdE+0x70>
  201904:	cb090108 	sub	x8, x8, x9
  201908:	1400008d 	b	201b3c <_ZN4core3fmt9Formatter3pad17hd5e22725c7165dbdE+0x2f4>
  20190c:	aa0003f5 	mov	x21, x0
  201910:	aa1303e0 	mov	x0, x19
  201914:	aa1403e1 	mov	x1, x20
  201918:	940000cb 	bl	201c44 <_ZN4core3str5count14do_count_chars17hae3c2a457455db39E>
  20191c:	aa0003e8 	mov	x8, x0
  201920:	aa1503e0 	mov	x0, x21
  201924:	14000086 	b	201b3c <_ZN4core3fmt9Formatter3pad17hd5e22725c7165dbdE+0x2f4>
  201928:	aa1f03f4 	mov	x20, xzr
  20192c:	cb1f0108 	sub	x8, x8, xzr
  201930:	14000083 	b	201b3c <_ZN4core3fmt9Formatter3pad17hd5e22725c7165dbdE+0x2f4>
  201934:	aa1f03e8 	mov	x8, xzr
  201938:	14000081 	b	201b3c <_ZN4core3fmt9Formatter3pad17hd5e22725c7165dbdE+0x2f4>
  20193c:	aa1303ea 	mov	x10, x19
  201940:	39400a69 	ldrb	w9, [x19, #2]
  201944:	39400668 	ldrb	w8, [x19, #1]
  201948:	38404d4b 	ldrb	w11, [x10, #4]!
  20194c:	3940094c 	ldrb	w12, [x10, #2]
  201950:	3940026d 	ldrb	w13, [x19]
  201954:	39400e6e 	ldrb	w14, [x19, #3]
  201958:	d370bd29 	lsl	x9, x9, #16
  20195c:	3940166f 	ldrb	w15, [x19, #5]
  201960:	39400d4a 	ldrb	w10, [x10, #3]
  201964:	53103d8c 	lsl	w12, w12, #16
  201968:	aa0821a8 	orr	x8, x13, x8, lsl #8
  20196c:	aa0e6129 	orr	x9, x9, x14, lsl #24
  201970:	0f05e7e4 	movi	v4.8b, #0xbf
  201974:	2a0f216b 	orr	w11, w11, w15, lsl #8
  201978:	2a0a618a 	orr	w10, w12, w10, lsl #24
  20197c:	aa080128 	orr	x8, x9, x8
  201980:	2a0b0149 	orr	w9, w10, w11
  201984:	aa098108 	orr	x8, x8, x9, lsl #32
  201988:	927d0689 	and	x9, x20, #0x18
  20198c:	f100213f 	cmp	x9, #0x8
  201990:	9e670100 	fmov	d0, x8
  201994:	52800028 	mov	w8, #0x1                   	// #1
  201998:	4e080d03 	dup	v3.2d, x8
  20199c:	0e243400 	cmgt	v0.8b, v0.8b, v4.8b
  2019a0:	2f08a400 	uxtl	v0.8h, v0.8b
  2019a4:	6f10a401 	uxtl2	v1.4s, v0.8h
  2019a8:	2f10a400 	uxtl	v0.4s, v0.4h
  2019ac:	6f20a422 	uxtl2	v2.2d, v1.4s
  2019b0:	2f20a421 	uxtl	v1.2d, v1.2s
  2019b4:	6f20a405 	uxtl2	v5.2d, v0.4s
  2019b8:	2f20a406 	uxtl	v6.2d, v0.2s
  2019bc:	4e231c40 	and	v0.16b, v2.16b, v3.16b
  2019c0:	4e231c22 	and	v2.16b, v1.16b, v3.16b
  2019c4:	4e231ca1 	and	v1.16b, v5.16b, v3.16b
  2019c8:	4e231cc3 	and	v3.16b, v6.16b, v3.16b
  2019cc:	540009c0 	b.eq	201b04 <_ZN4core3fmt9Formatter3pad17hd5e22725c7165dbdE+0x2bc>  // b.none
  2019d0:	aa1303e8 	mov	x8, x19
  2019d4:	f100413f 	cmp	x9, #0x10
  2019d8:	38408d0a 	ldrb	w10, [x8, #8]!
  2019dc:	3940050b 	ldrb	w11, [x8, #1]
  2019e0:	39400d0c 	ldrb	w12, [x8, #3]
  2019e4:	3940090d 	ldrb	w13, [x8, #2]
  2019e8:	3940150e 	ldrb	w14, [x8, #5]
  2019ec:	38404d0f 	ldrb	w15, [x8, #4]!
  2019f0:	39400910 	ldrb	w16, [x8, #2]
  2019f4:	39400d08 	ldrb	w8, [x8, #3]
  2019f8:	d370bdad 	lsl	x13, x13, #16
  2019fc:	aa0b214a 	orr	x10, x10, x11, lsl #8
  201a00:	53103e10 	lsl	w16, w16, #16
  201a04:	2a0e21eb 	orr	w11, w15, w14, lsl #8
  201a08:	aa0c61ac 	orr	x12, x13, x12, lsl #24
  201a0c:	2a086208 	orr	w8, w16, w8, lsl #24
  201a10:	aa0a018a 	orr	x10, x12, x10
  201a14:	2a0b0108 	orr	w8, w8, w11
  201a18:	aa088148 	orr	x8, x10, x8, lsl #32
  201a1c:	9e670105 	fmov	d5, x8
  201a20:	52800028 	mov	w8, #0x1                   	// #1
  201a24:	4e080d06 	dup	v6.2d, x8
  201a28:	0e2434a4 	cmgt	v4.8b, v5.8b, v4.8b
  201a2c:	2f08a484 	uxtl	v4.8h, v4.8b
  201a30:	6f10a485 	uxtl2	v5.4s, v4.8h
  201a34:	2f10a484 	uxtl	v4.4s, v4.4h
  201a38:	6f20a4a7 	uxtl2	v7.2d, v5.4s
  201a3c:	2f20a490 	uxtl	v16.2d, v4.2s
  201a40:	6f20a484 	uxtl2	v4.2d, v4.4s
  201a44:	2f20a4a5 	uxtl	v5.2d, v5.2s
  201a48:	4e261ce7 	and	v7.16b, v7.16b, v6.16b
  201a4c:	4e261e10 	and	v16.16b, v16.16b, v6.16b
  201a50:	4e261c84 	and	v4.16b, v4.16b, v6.16b
  201a54:	4e261ca5 	and	v5.16b, v5.16b, v6.16b
  201a58:	4ee78400 	add	v0.2d, v0.2d, v7.2d
  201a5c:	4ee48421 	add	v1.2d, v1.2d, v4.2d
  201a60:	4ef08463 	add	v3.2d, v3.2d, v16.2d
  201a64:	4ee58442 	add	v2.2d, v2.2d, v5.2d
  201a68:	540004e0 	b.eq	201b04 <_ZN4core3fmt9Formatter3pad17hd5e22725c7165dbdE+0x2bc>  // b.none
  201a6c:	aa1303e8 	mov	x8, x19
  201a70:	0f05e7e4 	movi	v4.8b, #0xbf
  201a74:	38410d0a 	ldrb	w10, [x8, #16]!
  201a78:	3940050b 	ldrb	w11, [x8, #1]
  201a7c:	39400d0c 	ldrb	w12, [x8, #3]
  201a80:	3940090d 	ldrb	w13, [x8, #2]
  201a84:	3940150e 	ldrb	w14, [x8, #5]
  201a88:	38404d0f 	ldrb	w15, [x8, #4]!
  201a8c:	39400910 	ldrb	w16, [x8, #2]
  201a90:	39400d08 	ldrb	w8, [x8, #3]
  201a94:	d370bdad 	lsl	x13, x13, #16
  201a98:	aa0b214a 	orr	x10, x10, x11, lsl #8
  201a9c:	53103e10 	lsl	w16, w16, #16
  201aa0:	2a0e21eb 	orr	w11, w15, w14, lsl #8
  201aa4:	aa0c61ac 	orr	x12, x13, x12, lsl #24
  201aa8:	2a086208 	orr	w8, w16, w8, lsl #24
  201aac:	aa0a018a 	orr	x10, x12, x10
  201ab0:	2a0b0108 	orr	w8, w8, w11
  201ab4:	aa088148 	orr	x8, x10, x8, lsl #32
  201ab8:	9e670105 	fmov	d5, x8
  201abc:	52800028 	mov	w8, #0x1                   	// #1
  201ac0:	4e080d06 	dup	v6.2d, x8
  201ac4:	0e2434a4 	cmgt	v4.8b, v5.8b, v4.8b
  201ac8:	2f08a484 	uxtl	v4.8h, v4.8b
  201acc:	6f10a485 	uxtl2	v5.4s, v4.8h
  201ad0:	2f10a484 	uxtl	v4.4s, v4.4h
  201ad4:	6f20a4a7 	uxtl2	v7.2d, v5.4s
  201ad8:	2f20a490 	uxtl	v16.2d, v4.2s
  201adc:	6f20a484 	uxtl2	v4.2d, v4.4s
  201ae0:	2f20a4a5 	uxtl	v5.2d, v5.2s
  201ae4:	4e261ce7 	and	v7.16b, v7.16b, v6.16b
  201ae8:	4e261e10 	and	v16.16b, v16.16b, v6.16b
  201aec:	4e261c84 	and	v4.16b, v4.16b, v6.16b
  201af0:	4e261ca5 	and	v5.16b, v5.16b, v6.16b
  201af4:	4ee78400 	add	v0.2d, v0.2d, v7.2d
  201af8:	4ee48421 	add	v1.2d, v1.2d, v4.2d
  201afc:	4ef08463 	add	v3.2d, v3.2d, v16.2d
  201b00:	4ee58442 	add	v2.2d, v2.2d, v5.2d
  201b04:	4ee28462 	add	v2.2d, v3.2d, v2.2d
  201b08:	4ee08420 	add	v0.2d, v1.2d, v0.2d
  201b0c:	eb09029f 	cmp	x20, x9
  201b10:	4ee08440 	add	v0.2d, v2.2d, v0.2d
  201b14:	5ef1b800 	addp	d0, v0.2d
  201b18:	9e660008 	fmov	x8, d0
  201b1c:	54000100 	b.eq	201b3c <_ZN4core3fmt9Formatter3pad17hd5e22725c7165dbdE+0x2f4>  // b.none
  201b20:	cb09028a 	sub	x10, x20, x9
  201b24:	8b090269 	add	x9, x19, x9
  201b28:	38c0152b 	ldrsb	w11, [x9], #1
  201b2c:	3101057f 	cmn	w11, #0x41
  201b30:	9a88d508 	cinc	x8, x8, gt
  201b34:	f100054a 	subs	x10, x10, #0x1
  201b38:	54ffff81 	b.ne	201b28 <_ZN4core3fmt9Formatter3pad17hd5e22725c7165dbdE+0x2e0>  // b.any
  201b3c:	79402809 	ldrh	w9, [x0, #20]
  201b40:	eb09011f 	cmp	x8, x9
  201b44:	54000122 	b.cs	201b68 <_ZN4core3fmt9Formatter3pad17hd5e22725c7165dbdE+0x320>  // b.hs, b.nlast
  201b48:	531d7aca 	ubfx	w10, w22, #29, #2
  201b4c:	2a1f03f7 	mov	w23, wzr
  201b50:	4b080139 	sub	w25, w9, w8
  201b54:	7100055f 	cmp	w10, #0x1
  201b58:	540001cc 	b.gt	201b90 <_ZN4core3fmt9Formatter3pad17hd5e22725c7165dbdE+0x348>
  201b5c:	3400020a 	cbz	w10, 201b9c <_ZN4core3fmt9Formatter3pad17hd5e22725c7165dbdE+0x354>
  201b60:	2a1903f7 	mov	w23, w25
  201b64:	1400000e 	b	201b9c <_ZN4core3fmt9Formatter3pad17hd5e22725c7165dbdE+0x354>
  201b68:	a9402000 	ldp	x0, x8, [x0]
  201b6c:	aa1303e1 	mov	x1, x19
  201b70:	f9400d03 	ldr	x3, [x8, #24]
  201b74:	aa1403e2 	mov	x2, x20
  201b78:	a9444ff4 	ldp	x20, x19, [sp, #64]
  201b7c:	a94357f6 	ldp	x22, x21, [sp, #48]
  201b80:	a9425ff8 	ldp	x24, x23, [sp, #32]
  201b84:	a94167fa 	ldp	x26, x25, [sp, #16]
  201b88:	a8c57bfd 	ldp	x29, x30, [sp], #80
  201b8c:	d61f0060 	br	x3
  201b90:	7100095f 	cmp	w10, #0x2
  201b94:	54000041 	b.ne	201b9c <_ZN4core3fmt9Formatter3pad17hd5e22725c7165dbdE+0x354>  // b.any
  201b98:	53013f37 	ubfx	w23, w25, #1, #15
  201b9c:	a9406015 	ldp	x21, x24, [x0]
  201ba0:	2a1f03fa 	mov	w26, wzr
  201ba4:	12003f48 	and	w8, w26, #0xffff
  201ba8:	6b37211f 	cmp	w8, w23, uxth
  201bac:	54000102 	b.cs	201bcc <_ZN4core3fmt9Formatter3pad17hd5e22725c7165dbdE+0x384>  // b.hs, b.nlast
  201bb0:	f9401308 	ldr	x8, [x24, #32]
  201bb4:	120052c1 	and	w1, w22, #0x1fffff
  201bb8:	aa1503e0 	mov	x0, x21
  201bbc:	1100075a 	add	w26, w26, #0x1
  201bc0:	d63f0100 	blr	x8
  201bc4:	3607ff00 	tbz	w0, #0, 201ba4 <_ZN4core3fmt9Formatter3pad17hd5e22725c7165dbdE+0x35c>
  201bc8:	14000007 	b	201be4 <_ZN4core3fmt9Formatter3pad17hd5e22725c7165dbdE+0x39c>
  201bcc:	f9400f08 	ldr	x8, [x24, #24]
  201bd0:	aa1503e0 	mov	x0, x21
  201bd4:	aa1303e1 	mov	x1, x19
  201bd8:	aa1403e2 	mov	x2, x20
  201bdc:	d63f0100 	blr	x8
  201be0:	36000120 	tbz	w0, #0, 201c04 <_ZN4core3fmt9Formatter3pad17hd5e22725c7165dbdE+0x3bc>
  201be4:	52800033 	mov	w19, #0x1                   	// #1
  201be8:	2a1303e0 	mov	w0, w19
  201bec:	a9444ff4 	ldp	x20, x19, [sp, #64]
  201bf0:	a94357f6 	ldp	x22, x21, [sp, #48]
  201bf4:	a9425ff8 	ldp	x24, x23, [sp, #32]
  201bf8:	a94167fa 	ldp	x26, x25, [sp, #16]
  201bfc:	a8c57bfd 	ldp	x29, x30, [sp], #80
  201c00:	d65f03c0 	ret
  201c04:	2a1f03f4 	mov	w20, wzr
  201c08:	4b170337 	sub	w23, w25, w23
  201c0c:	12003e88 	and	w8, w20, #0xffff
  201c10:	6b37211f 	cmp	w8, w23, uxth
  201c14:	1a9f27f3 	cset	w19, cc	// cc = lo, ul, last
  201c18:	54fffe82 	b.cs	201be8 <_ZN4core3fmt9Formatter3pad17hd5e22725c7165dbdE+0x3a0>  // b.hs, b.nlast
  201c1c:	f9401308 	ldr	x8, [x24, #32]
  201c20:	120052c1 	and	w1, w22, #0x1fffff
  201c24:	aa1503e0 	mov	x0, x21
  201c28:	11000694 	add	w20, w20, #0x1
  201c2c:	d63f0100 	blr	x8
  201c30:	3607fee0 	tbz	w0, #0, 201c0c <_ZN4core3fmt9Formatter3pad17hd5e22725c7165dbdE+0x3c4>
  201c34:	17ffffed 	b	201be8 <_ZN4core3fmt9Formatter3pad17hd5e22725c7165dbdE+0x3a0>

0000000000201c38 <_ZN4core3fmt9Formatter9write_str17h84f67679a465af20E>:
  201c38:	a9402000 	ldp	x0, x8, [x0]
  201c3c:	f9400d03 	ldr	x3, [x8, #24]
  201c40:	d61f0060 	br	x3

0000000000201c44 <_ZN4core3str5count14do_count_chars17hae3c2a457455db39E>:
  201c44:	d10183ff 	sub	sp, sp, #0x60
  201c48:	fd0023ea 	str	d10, [sp, #64]
  201c4c:	6d0523e9 	stp	d9, d8, [sp, #80]
  201c50:	91001c08 	add	x8, x0, #0x7
  201c54:	927df109 	and	x9, x8, #0xfffffffffffffff8
  201c58:	cb00012c 	sub	x12, x9, x0
  201c5c:	eb0c002b 	subs	x11, x1, x12
  201c60:	540000e2 	b.cs	201c7c <_ZN4core3str5count14do_count_chars17hae3c2a457455db39E+0x38>  // b.hs, b.nlast
  201c64:	b4000741 	cbz	x1, 201d4c <_ZN4core3str5count14do_count_chars17hae3c2a457455db39E+0x108>
  201c68:	f100203f 	cmp	x1, #0x8
  201c6c:	54001ba2 	b.cs	201fe0 <_ZN4core3str5count14do_count_chars17hae3c2a457455db39E+0x39c>  // b.hs, b.nlast
  201c70:	aa1f03e9 	mov	x9, xzr
  201c74:	aa1f03e8 	mov	x8, xzr
  201c78:	140001d3 	b	2023c4 <_ZN4core3str5count14do_count_chars17hae3c2a457455db39E+0x780>
  201c7c:	f100217f 	cmp	x11, #0x8
  201c80:	54ffff23 	b.cc	201c64 <_ZN4core3str5count14do_count_chars17hae3c2a457455db39E+0x20>  // b.lo, b.ul, b.last
  201c84:	eb00013f 	cmp	x9, x0
  201c88:	9240096a 	and	x10, x11, #0x7
  201c8c:	aa1f03e8 	mov	x8, xzr
  201c90:	54000100 	b.eq	201cb0 <_ZN4core3str5count14do_count_chars17hae3c2a457455db39E+0x6c>  // b.none
  201c94:	cb090009 	sub	x9, x0, x9
  201c98:	aa0003ed 	mov	x13, x0
  201c9c:	38c015ae 	ldrsb	w14, [x13], #1
  201ca0:	310105df 	cmn	w14, #0x41
  201ca4:	9a88d508 	cinc	x8, x8, gt
  201ca8:	b1000529 	adds	x9, x9, #0x1
  201cac:	54ffff83 	b.cc	201c9c <_ZN4core3str5count14do_count_chars17hae3c2a457455db39E+0x58>  // b.lo, b.ul, b.last
  201cb0:	d343fd69 	lsr	x9, x11, #3
  201cb4:	8b0c000e 	add	x14, x0, x12
  201cb8:	b400056a 	cbz	x10, 201d64 <_ZN4core3str5count14do_count_chars17hae3c2a457455db39E+0x120>
  201cbc:	927ded6b 	and	x11, x11, #0x7ffffffffffffff8
  201cc0:	8b0b01cc 	add	x12, x14, x11
  201cc4:	39c0018b 	ldrsb	w11, [x12]
  201cc8:	3101057f 	cmn	w11, #0x41
  201ccc:	1a9fd7eb 	cset	w11, gt
  201cd0:	f100055f 	cmp	x10, #0x1
  201cd4:	540004a0 	b.eq	201d68 <_ZN4core3str5count14do_count_chars17hae3c2a457455db39E+0x124>  // b.none
  201cd8:	39c0058d 	ldrsb	w13, [x12, #1]
  201cdc:	310105bf 	cmn	w13, #0x41
  201ce0:	9a8bd56b 	cinc	x11, x11, gt
  201ce4:	f100095f 	cmp	x10, #0x2
  201ce8:	54000400 	b.eq	201d68 <_ZN4core3str5count14do_count_chars17hae3c2a457455db39E+0x124>  // b.none
  201cec:	39c0098d 	ldrsb	w13, [x12, #2]
  201cf0:	310105bf 	cmn	w13, #0x41
  201cf4:	9a8bd56b 	cinc	x11, x11, gt
  201cf8:	f1000d5f 	cmp	x10, #0x3
  201cfc:	54000360 	b.eq	201d68 <_ZN4core3str5count14do_count_chars17hae3c2a457455db39E+0x124>  // b.none
  201d00:	39c00d8d 	ldrsb	w13, [x12, #3]
  201d04:	310105bf 	cmn	w13, #0x41
  201d08:	9a8bd56b 	cinc	x11, x11, gt
  201d0c:	f100115f 	cmp	x10, #0x4
  201d10:	540002c0 	b.eq	201d68 <_ZN4core3str5count14do_count_chars17hae3c2a457455db39E+0x124>  // b.none
  201d14:	39c0118d 	ldrsb	w13, [x12, #4]
  201d18:	310105bf 	cmn	w13, #0x41
  201d1c:	9a8bd56b 	cinc	x11, x11, gt
  201d20:	f100155f 	cmp	x10, #0x5
  201d24:	54000220 	b.eq	201d68 <_ZN4core3str5count14do_count_chars17hae3c2a457455db39E+0x124>  // b.none
  201d28:	39c0158d 	ldrsb	w13, [x12, #5]
  201d2c:	310105bf 	cmn	w13, #0x41
  201d30:	9a8bd56b 	cinc	x11, x11, gt
  201d34:	f100195f 	cmp	x10, #0x6
  201d38:	54000180 	b.eq	201d68 <_ZN4core3str5count14do_count_chars17hae3c2a457455db39E+0x124>  // b.none
  201d3c:	39c0198a 	ldrsb	w10, [x12, #6]
  201d40:	3101055f 	cmn	w10, #0x41
  201d44:	9a8bd56b 	cinc	x11, x11, gt
  201d48:	14000008 	b	201d68 <_ZN4core3str5count14do_count_chars17hae3c2a457455db39E+0x124>
  201d4c:	aa1f03e8 	mov	x8, xzr
  201d50:	6d4523e9 	ldp	d9, d8, [sp, #80]
  201d54:	aa0803e0 	mov	x0, x8
  201d58:	fd4023ea 	ldr	d10, [sp, #64]
  201d5c:	910183ff 	add	sp, sp, #0x60
  201d60:	d65f03c0 	ret
  201d64:	aa1f03eb 	mov	x11, xzr
  201d68:	4f00e420 	movi	v0.16b, #0x1
  201d6c:	8b080168 	add	x8, x11, x8
  201d70:	5280180a 	mov	w10, #0xc0                  	// #192
  201d74:	b20083eb 	mov	x11, #0x1000100010001       	// #281479271743489
  201d78:	1400000c 	b	201da8 <_ZN4core3str5count14do_count_chars17hae3c2a457455db39E+0x164>
  201d7c:	aa1f03f1 	mov	x17, xzr
  201d80:	d348fe2f 	lsr	x15, x17, #8
  201d84:	92009e30 	and	x16, x17, #0xff00ff00ff00ff
  201d88:	8b0e018e 	add	x14, x12, x14
  201d8c:	cb0d0129 	sub	x9, x9, x13
  201d90:	92009def 	and	x15, x15, #0xff00ff00ff00ff
  201d94:	8b1001ef 	add	x15, x15, x16
  201d98:	9b0b7df0 	mul	x16, x15, x11
  201d9c:	924005af 	and	x15, x13, #0x3
  201da0:	8b50c108 	add	x8, x8, x16, lsr #48
  201da4:	b5000d8f 	cbnz	x15, 201f54 <_ZN4core3str5count14do_count_chars17hae3c2a457455db39E+0x310>
  201da8:	b4fffd49 	cbz	x9, 201d50 <_ZN4core3str5count14do_count_chars17hae3c2a457455db39E+0x10c>
  201dac:	f103013f 	cmp	x9, #0xc0
  201db0:	aa0e03ec 	mov	x12, x14
  201db4:	9a8a312d 	csel	x13, x9, x10, cc	// cc = lo, ul, last
  201db8:	d37df1ae 	lsl	x14, x13, #3
  201dbc:	f27b15d0 	ands	x16, x14, #0x7e0
  201dc0:	54fffde0 	b.eq	201d7c <_ZN4core3str5count14do_count_chars17hae3c2a457455db39E+0x138>  // b.none
  201dc4:	d10081cf 	sub	x15, x14, #0x20
  201dc8:	f10181ff 	cmp	x15, #0x60
  201dcc:	54000082 	b.cs	201ddc <_ZN4core3str5count14do_count_chars17hae3c2a457455db39E+0x198>  // b.hs, b.nlast
  201dd0:	aa1f03f1 	mov	x17, xzr
  201dd4:	aa0c03ef 	mov	x15, x12
  201dd8:	14000044 	b	201ee8 <_ZN4core3str5count14do_count_chars17hae3c2a457455db39E+0x2a4>
  201ddc:	d345fdef 	lsr	x15, x15, #5
  201de0:	6f00e401 	movi	v1.2d, #0x0
  201de4:	6f00e402 	movi	v2.2d, #0x0
  201de8:	91010180 	add	x0, x12, #0x40
  201dec:	910005f1 	add	x17, x15, #0x1
  201df0:	927ee632 	and	x18, x17, #0xffffffffffffffc
  201df4:	8b12158f 	add	x15, x12, x18, lsl #5
  201df8:	aa1203e1 	mov	x1, x18
  201dfc:	d1010002 	sub	x2, x0, #0x40
  201e00:	4c400c10 	ld4	{v16.2d-v19.2d}, [x0]
  201e04:	f1001021 	subs	x1, x1, #0x4
  201e08:	91020000 	add	x0, x0, #0x80
  201e0c:	4c400c43 	ld4	{v3.2d-v6.2d}, [x2]
  201e10:	6e205a07 	mvn	v7.16b, v16.16b
  201e14:	6e205a35 	mvn	v21.16b, v17.16b
  201e18:	6e205a5a 	mvn	v26.16b, v18.16b
  201e1c:	6e205876 	mvn	v22.16b, v3.16b
  201e20:	6e205897 	mvn	v23.16b, v4.16b
  201e24:	6e2058b8 	mvn	v24.16b, v5.16b
  201e28:	6f7a0614 	ushr	v20.2d, v16.2d, #6
  201e2c:	6f7a0639 	ushr	v25.2d, v17.2d, #6
  201e30:	6f7a065b 	ushr	v27.2d, v18.2d, #6
  201e34:	6f7a047c 	ushr	v28.2d, v3.2d, #6
  201e38:	6f7a049d 	ushr	v29.2d, v4.2d, #6
  201e3c:	6f7a04be 	ushr	v30.2d, v5.2d, #6
  201e40:	6f7906d6 	ushr	v22.2d, v22.2d, #7
  201e44:	6f7906f7 	ushr	v23.2d, v23.2d, #7
  201e48:	6f790718 	ushr	v24.2d, v24.2d, #7
  201e4c:	6f7904e7 	ushr	v7.2d, v7.2d, #7
  201e50:	6f7906b5 	ushr	v21.2d, v21.2d, #7
  201e54:	6f79075a 	ushr	v26.2d, v26.2d, #7
  201e58:	6e205a7f 	mvn	v31.16b, v19.16b
  201e5c:	6f7a0670 	ushr	v16.2d, v19.2d, #6
  201e60:	6e2058d1 	mvn	v17.16b, v6.16b
  201e64:	4ebc1ed2 	orr	v18.16b, v22.16b, v28.16b
  201e68:	4ebd1ef3 	orr	v19.16b, v23.16b, v29.16b
  201e6c:	4ebe1f16 	orr	v22.16b, v24.16b, v30.16b
  201e70:	4eb41ce7 	orr	v7.16b, v7.16b, v20.16b
  201e74:	4eb91eb4 	orr	v20.16b, v21.16b, v25.16b
  201e78:	4ebb1f55 	orr	v21.16b, v26.16b, v27.16b
  201e7c:	6f7a04c3 	ushr	v3.2d, v6.2d, #6
  201e80:	6f7907e4 	ushr	v4.2d, v31.2d, #7
  201e84:	6f790625 	ushr	v5.2d, v17.2d, #7
  201e88:	4e201e46 	and	v6.16b, v18.16b, v0.16b
  201e8c:	4e201e71 	and	v17.16b, v19.16b, v0.16b
  201e90:	4e201ed2 	and	v18.16b, v22.16b, v0.16b
  201e94:	4e201ce7 	and	v7.16b, v7.16b, v0.16b
  201e98:	4e201e93 	and	v19.16b, v20.16b, v0.16b
  201e9c:	4e201eb4 	and	v20.16b, v21.16b, v0.16b
  201ea0:	4eb01c84 	orr	v4.16b, v4.16b, v16.16b
  201ea4:	4ea31ca3 	orr	v3.16b, v5.16b, v3.16b
  201ea8:	4ee184c1 	add	v1.2d, v6.2d, v1.2d
  201eac:	4ef18646 	add	v6.2d, v18.2d, v17.2d
  201eb0:	4ee284e2 	add	v2.2d, v7.2d, v2.2d
  201eb4:	4ef38685 	add	v5.2d, v20.2d, v19.2d
  201eb8:	4e201c63 	and	v3.16b, v3.16b, v0.16b
  201ebc:	4e201c84 	and	v4.16b, v4.16b, v0.16b
  201ec0:	4ee184c1 	add	v1.2d, v6.2d, v1.2d
  201ec4:	4ee284a2 	add	v2.2d, v5.2d, v2.2d
  201ec8:	4ee18461 	add	v1.2d, v3.2d, v1.2d
  201ecc:	4ee28482 	add	v2.2d, v4.2d, v2.2d
  201ed0:	54fff961 	b.ne	201dfc <_ZN4core3str5count14do_count_chars17hae3c2a457455db39E+0x1b8>  // b.any
  201ed4:	4ee18441 	add	v1.2d, v2.2d, v1.2d
  201ed8:	eb12023f 	cmp	x17, x18
  201edc:	5ef1b821 	addp	d1, v1.2d
  201ee0:	9e660031 	fmov	x17, d1
  201ee4:	54fff4e0 	b.eq	201d80 <_ZN4core3str5count14do_count_chars17hae3c2a457455db39E+0x13c>  // b.none
  201ee8:	8b100190 	add	x16, x12, x16
  201eec:	f9400df2 	ldr	x18, [x15, #24]
  201ef0:	f9001ff2 	str	x18, [sp, #56]
  201ef4:	f94009f2 	ldr	x18, [x15, #16]
  201ef8:	f9001bf2 	str	x18, [sp, #48]
  201efc:	f94005f2 	ldr	x18, [x15, #8]
  201f00:	f90017f2 	str	x18, [sp, #40]
  201f04:	f84205f2 	ldr	x18, [x15], #32
  201f08:	eb1001ff 	cmp	x15, x16
  201f0c:	f90013f2 	str	x18, [sp, #32]
  201f10:	ad4107e2 	ldp	q2, q1, [sp, #32]
  201f14:	6e205823 	mvn	v3.16b, v1.16b
  201f18:	6e205844 	mvn	v4.16b, v2.16b
  201f1c:	6f7a0421 	ushr	v1.2d, v1.2d, #6
  201f20:	6f7a0442 	ushr	v2.2d, v2.2d, #6
  201f24:	6f790463 	ushr	v3.2d, v3.2d, #7
  201f28:	6f790484 	ushr	v4.2d, v4.2d, #7
  201f2c:	4ea21c82 	orr	v2.16b, v4.16b, v2.16b
  201f30:	4ea11c61 	orr	v1.16b, v3.16b, v1.16b
  201f34:	4e201c21 	and	v1.16b, v1.16b, v0.16b
  201f38:	4e201c42 	and	v2.16b, v2.16b, v0.16b
  201f3c:	4ee18441 	add	v1.2d, v2.2d, v1.2d
  201f40:	5ef1b821 	addp	d1, v1.2d
  201f44:	9e660032 	fmov	x18, d1
  201f48:	8b110251 	add	x17, x18, x17
  201f4c:	54fffd01 	b.ne	201eec <_ZN4core3str5count14do_count_chars17hae3c2a457455db39E+0x2a8>  // b.any
  201f50:	17ffff8c 	b	201d80 <_ZN4core3str5count14do_count_chars17hae3c2a457455db39E+0x13c>
  201f54:	927e15a9 	and	x9, x13, #0xfc
  201f58:	f10005ff 	cmp	x15, #0x1
  201f5c:	8b090d8a 	add	x10, x12, x9, lsl #3
  201f60:	f9400149 	ldr	x9, [x10]
  201f64:	aa2903eb 	mvn	x11, x9
  201f68:	d347fd6b 	lsr	x11, x11, #7
  201f6c:	aa491969 	orr	x9, x11, x9, lsr #6
  201f70:	9200c129 	and	x9, x9, #0x101010101010101
  201f74:	540001e0 	b.eq	201fb0 <_ZN4core3str5count14do_count_chars17hae3c2a457455db39E+0x36c>  // b.none
  201f78:	f940054b 	ldr	x11, [x10, #8]
  201f7c:	f10009ff 	cmp	x15, #0x2
  201f80:	aa2b03ec 	mvn	x12, x11
  201f84:	d347fd8c 	lsr	x12, x12, #7
  201f88:	aa4b198b 	orr	x11, x12, x11, lsr #6
  201f8c:	9200c16b 	and	x11, x11, #0x101010101010101
  201f90:	8b090169 	add	x9, x11, x9
  201f94:	540000e0 	b.eq	201fb0 <_ZN4core3str5count14do_count_chars17hae3c2a457455db39E+0x36c>  // b.none
  201f98:	f940094a 	ldr	x10, [x10, #16]
  201f9c:	aa2a03eb 	mvn	x11, x10
  201fa0:	d347fd6b 	lsr	x11, x11, #7
  201fa4:	aa4a196a 	orr	x10, x11, x10, lsr #6
  201fa8:	9200c14a 	and	x10, x10, #0x101010101010101
  201fac:	8b090149 	add	x9, x10, x9
  201fb0:	d348fd2a 	lsr	x10, x9, #8
  201fb4:	92009d29 	and	x9, x9, #0xff00ff00ff00ff
  201fb8:	92009d4a 	and	x10, x10, #0xff00ff00ff00ff
  201fbc:	8b090149 	add	x9, x10, x9
  201fc0:	b20083ea 	mov	x10, #0x1000100010001       	// #281479271743489
  201fc4:	9b0a7d29 	mul	x9, x9, x10
  201fc8:	8b49c108 	add	x8, x8, x9, lsr #48
  201fcc:	6d4523e9 	ldp	d9, d8, [sp, #80]
  201fd0:	aa0803e0 	mov	x0, x8
  201fd4:	fd4023ea 	ldr	d10, [sp, #64]
  201fd8:	910183ff 	add	sp, sp, #0x60
  201fdc:	d65f03c0 	ret
  201fe0:	f100803f 	cmp	x1, #0x20
  201fe4:	54000082 	b.cs	201ff4 <_ZN4core3str5count14do_count_chars17hae3c2a457455db39E+0x3b0>  // b.hs, b.nlast
  201fe8:	aa1f03e9 	mov	x9, xzr
  201fec:	aa1f03e8 	mov	x8, xzr
  201ff0:	140000bc 	b	2022e0 <_ZN4core3str5count14do_count_chars17hae3c2a457455db39E+0x69c>
  201ff4:	6f00e400 	movi	v0.2d, #0x0
  201ff8:	4f05e7e2 	movi	v2.16b, #0xbf
  201ffc:	52800028 	mov	w8, #0x1                   	// #1
  202000:	6f00e406 	movi	v6.2d, #0x0
  202004:	6f00e401 	movi	v1.2d, #0x0
  202008:	927be829 	and	x9, x1, #0xffffffffffffffe0
  20200c:	6f00e411 	movi	v17.2d, #0x0
  202010:	6f00e404 	movi	v4.2d, #0x0
  202014:	aa0903ea 	mov	x10, x9
  202018:	6f00e405 	movi	v5.2d, #0x0
  20201c:	6f00e403 	movi	v3.2d, #0x0
  202020:	6f00e415 	movi	v21.2d, #0x0
  202024:	6f00e410 	movi	v16.2d, #0x0
  202028:	6f00e416 	movi	v22.2d, #0x0
  20202c:	6f00e407 	movi	v7.2d, #0x0
  202030:	6f00e417 	movi	v23.2d, #0x0
  202034:	6f00e413 	movi	v19.2d, #0x0
  202038:	6f00e414 	movi	v20.2d, #0x0
  20203c:	6f00e412 	movi	v18.2d, #0x0
  202040:	6f00e418 	movi	v24.2d, #0x0
  202044:	4e080d19 	dup	v25.2d, x8
  202048:	91004008 	add	x8, x0, #0x10
  20204c:	aa0803eb 	mov	x11, x8
  202050:	385f1111 	ldurb	w17, [x8, #-15]
  202054:	385f5112 	ldurb	w18, [x8, #-11]
  202058:	385f0d6c 	ldrb	w12, [x11, #-16]!
  20205c:	aa0b03ee 	mov	x14, x11
  202060:	3940096d 	ldrb	w13, [x11, #2]
  202064:	38404dcf 	ldrb	w15, [x14, #4]!
  202068:	394009d0 	ldrb	w16, [x14, #2]
  20206c:	39400d62 	ldrb	w2, [x11, #3]
  202070:	39400dce 	ldrb	w14, [x14, #3]
  202074:	d370bdad 	lsl	x13, x13, #16
  202078:	aa11218c 	orr	x12, x12, x17, lsl #8
  20207c:	2a1221ef 	orr	w15, w15, w18, lsl #8
  202080:	53103e10 	lsl	w16, w16, #16
  202084:	f100814a 	subs	x10, x10, #0x20
  202088:	aa0261ad 	orr	x13, x13, x2, lsl #24
  20208c:	2a0e620e 	orr	w14, w16, w14, lsl #24
  202090:	aa0c01ac 	orr	x12, x13, x12
  202094:	2a0f01cd 	orr	w13, w14, w15
  202098:	aa0d818c 	orr	x12, x12, x13, lsl #32
  20209c:	f9000bec 	str	x12, [sp, #16]
  2020a0:	aa0b03ec 	mov	x12, x11
  2020a4:	38408d8d 	ldrb	w13, [x12, #8]!
  2020a8:	39400d8e 	ldrb	w14, [x12, #3]
  2020ac:	3940098f 	ldrb	w15, [x12, #2]
  2020b0:	38404d90 	ldrb	w16, [x12, #4]!
  2020b4:	39400991 	ldrb	w17, [x12, #2]
  2020b8:	39402572 	ldrb	w18, [x11, #9]
  2020bc:	3940356b 	ldrb	w11, [x11, #13]
  2020c0:	39400d8c 	ldrb	w12, [x12, #3]
  2020c4:	d370bdef 	lsl	x15, x15, #16
  2020c8:	53103e31 	lsl	w17, w17, #16
  2020cc:	aa1221ad 	orr	x13, x13, x18, lsl #8
  2020d0:	2a0b220b 	orr	w11, w16, w11, lsl #8
  2020d4:	aa0e61ee 	orr	x14, x15, x14, lsl #24
  2020d8:	2a0c622c 	orr	w12, w17, w12, lsl #24
  2020dc:	aa0d01cd 	orr	x13, x14, x13
  2020e0:	2a0b018b 	orr	w11, w12, w11
  2020e4:	aa0b81ab 	orr	x11, x13, x11, lsl #32
  2020e8:	f9000feb 	str	x11, [sp, #24]
  2020ec:	aa0803eb 	mov	x11, x8
  2020f0:	3940090d 	ldrb	w13, [x8, #2]
  2020f4:	38404d6e 	ldrb	w14, [x11, #4]!
  2020f8:	3940096f 	ldrb	w15, [x11, #2]
  2020fc:	3940050c 	ldrb	w12, [x8, #1]
  202100:	39400110 	ldrb	w16, [x8]
  202104:	39400d11 	ldrb	w17, [x8, #3]
  202108:	39401512 	ldrb	w18, [x8, #5]
  20210c:	39400d6b 	ldrb	w11, [x11, #3]
  202110:	d370bdad 	lsl	x13, x13, #16
  202114:	53103def 	lsl	w15, w15, #16
  202118:	aa0c220c 	orr	x12, x16, x12, lsl #8
  20211c:	2a1221ce 	orr	w14, w14, w18, lsl #8
  202120:	3dc007fa 	ldr	q26, [sp, #16]
  202124:	aa1161ad 	orr	x13, x13, x17, lsl #24
  202128:	2a0b61eb 	orr	w11, w15, w11, lsl #24
  20212c:	4e22375a 	cmgt	v26.16b, v26.16b, v2.16b
  202130:	aa0c01ac 	orr	x12, x13, x12
  202134:	2a0e016b 	orr	w11, w11, w14
  202138:	aa0b818b 	orr	x11, x12, x11, lsl #32
  20213c:	aa0803ec 	mov	x12, x8
  202140:	6f08a75b 	uxtl2	v27.8h, v26.16b
  202144:	2f08a75a 	uxtl	v26.8h, v26.8b
  202148:	f90003eb 	str	x11, [sp]
  20214c:	38408d8b 	ldrb	w11, [x12, #8]!
  202150:	39400d8d 	ldrb	w13, [x12, #3]
  202154:	3940098e 	ldrb	w14, [x12, #2]
  202158:	38404d8f 	ldrb	w15, [x12, #4]!
  20215c:	39400990 	ldrb	w16, [x12, #2]
  202160:	39402511 	ldrb	w17, [x8, #9]
  202164:	39403512 	ldrb	w18, [x8, #13]
  202168:	39400d8c 	ldrb	w12, [x12, #3]
  20216c:	d370bdce 	lsl	x14, x14, #16
  202170:	6f10a77c 	uxtl2	v28.4s, v27.8h
  202174:	53103e10 	lsl	w16, w16, #16
  202178:	aa11216b 	orr	x11, x11, x17, lsl #8
  20217c:	2a1221ef 	orr	w15, w15, w18, lsl #8
  202180:	aa0d61cd 	orr	x13, x14, x13, lsl #24
  202184:	2f10a77b 	uxtl	v27.4s, v27.4h
  202188:	2f10a75e 	uxtl	v30.4s, v26.4h
  20218c:	2a0c620c 	orr	w12, w16, w12, lsl #24
  202190:	6f20a79d 	uxtl2	v29.2d, v28.4s
  202194:	6f10a75a 	uxtl2	v26.4s, v26.8h
  202198:	aa0b01ab 	orr	x11, x13, x11
  20219c:	2f20a79c 	uxtl	v28.2d, v28.2s
  2021a0:	91008108 	add	x8, x8, #0x20
  2021a4:	2a0f018c 	orr	w12, w12, w15
  2021a8:	6f20a768 	uxtl2	v8.2d, v27.4s
  2021ac:	6f20a7c9 	uxtl2	v9.2d, v30.4s
  2021b0:	aa0c816b 	orr	x11, x11, x12, lsl #32
  2021b4:	4e391fbd 	and	v29.16b, v29.16b, v25.16b
  2021b8:	6f20a74a 	uxtl2	v10.2d, v26.4s
  2021bc:	2f20a75a 	uxtl	v26.2d, v26.2s
  2021c0:	2f20a77b 	uxtl	v27.2d, v27.2s
  2021c4:	4e391f9c 	and	v28.16b, v28.16b, v25.16b
  2021c8:	f90007eb 	str	x11, [sp, #8]
  2021cc:	4e391d08 	and	v8.16b, v8.16b, v25.16b
  2021d0:	4e391d29 	and	v9.16b, v9.16b, v25.16b
  2021d4:	3dc003ff 	ldr	q31, [sp]
  2021d8:	4efd86b5 	add	v21.2d, v21.2d, v29.2d
  2021dc:	4e391d4a 	and	v10.16b, v10.16b, v25.16b
  2021e0:	4e391f5a 	and	v26.16b, v26.16b, v25.16b
  2021e4:	4e391f7b 	and	v27.16b, v27.16b, v25.16b
  2021e8:	4efc8463 	add	v3.2d, v3.2d, v28.2d
  2021ec:	4e2237ff 	cmgt	v31.16b, v31.16b, v2.16b
  2021f0:	4ee884a5 	add	v5.2d, v5.2d, v8.2d
  2021f4:	2f20a7de 	uxtl	v30.2d, v30.2s
  2021f8:	4eea8631 	add	v17.2d, v17.2d, v10.2d
  2021fc:	4ee984c6 	add	v6.2d, v6.2d, v9.2d
  202200:	4efa8421 	add	v1.2d, v1.2d, v26.2d
  202204:	4efb8484 	add	v4.2d, v4.2d, v27.2d
  202208:	6f08a7fd 	uxtl2	v29.8h, v31.16b
  20220c:	2f08a7ff 	uxtl	v31.8h, v31.8b
  202210:	4e391fde 	and	v30.16b, v30.16b, v25.16b
  202214:	6f10a7bc 	uxtl2	v28.4s, v29.8h
  202218:	6f10a7e8 	uxtl2	v8.4s, v31.8h
  20221c:	2f10a7bd 	uxtl	v29.4s, v29.4h
  202220:	2f10a7fa 	uxtl	v26.4s, v31.4h
  202224:	4efe8400 	add	v0.2d, v0.2d, v30.2d
  202228:	2f20a79b 	uxtl	v27.2d, v28.2s
  20222c:	6f20a79c 	uxtl2	v28.2d, v28.4s
  202230:	2f20a7bf 	uxtl	v31.2d, v29.2s
  202234:	6f20a509 	uxtl2	v9.2d, v8.4s
  202238:	6f20a7bd 	uxtl2	v29.2d, v29.4s
  20223c:	2f20a74a 	uxtl	v10.2d, v26.2s
  202240:	6f20a75a 	uxtl2	v26.2d, v26.4s
  202244:	2f20a508 	uxtl	v8.2d, v8.2s
  202248:	4e391f7b 	and	v27.16b, v27.16b, v25.16b
  20224c:	4e391f9c 	and	v28.16b, v28.16b, v25.16b
  202250:	4e391fff 	and	v31.16b, v31.16b, v25.16b
  202254:	4e391d29 	and	v9.16b, v9.16b, v25.16b
  202258:	4e391fbd 	and	v29.16b, v29.16b, v25.16b
  20225c:	4e391d4a 	and	v10.16b, v10.16b, v25.16b
  202260:	4e391f5a 	and	v26.16b, v26.16b, v25.16b
  202264:	4e391d08 	and	v8.16b, v8.16b, v25.16b
  202268:	4efc8718 	add	v24.2d, v24.2d, v28.2d
  20226c:	4efb8652 	add	v18.2d, v18.2d, v27.2d
  202270:	4eff8673 	add	v19.2d, v19.2d, v31.2d
  202274:	4efd8694 	add	v20.2d, v20.2d, v29.2d
  202278:	4ee986f7 	add	v23.2d, v23.2d, v9.2d
  20227c:	4eea8610 	add	v16.2d, v16.2d, v10.2d
  202280:	4ee884e7 	add	v7.2d, v7.2d, v8.2d
  202284:	4efa86d6 	add	v22.2d, v22.2d, v26.2d
  202288:	54ffee21 	b.ne	20204c <_ZN4core3str5count14do_count_chars17hae3c2a457455db39E+0x408>  // b.any
  20228c:	4ef186e2 	add	v2.2d, v23.2d, v17.2d
  202290:	4ef58711 	add	v17.2d, v24.2d, v21.2d
  202294:	eb09003f 	cmp	x1, x9
  202298:	4ee686c6 	add	v6.2d, v22.2d, v6.2d
  20229c:	4ee08600 	add	v0.2d, v16.2d, v0.2d
  2022a0:	4ee48664 	add	v4.2d, v19.2d, v4.2d
  2022a4:	4ee58685 	add	v5.2d, v20.2d, v5.2d
  2022a8:	4ee184e1 	add	v1.2d, v7.2d, v1.2d
  2022ac:	4ee38643 	add	v3.2d, v18.2d, v3.2d
  2022b0:	4ef18442 	add	v2.2d, v2.2d, v17.2d
  2022b4:	4ee48400 	add	v0.2d, v0.2d, v4.2d
  2022b8:	4ee38421 	add	v1.2d, v1.2d, v3.2d
  2022bc:	4ee584c3 	add	v3.2d, v6.2d, v5.2d
  2022c0:	4ee18400 	add	v0.2d, v0.2d, v1.2d
  2022c4:	4ee28461 	add	v1.2d, v3.2d, v2.2d
  2022c8:	4ee18400 	add	v0.2d, v0.2d, v1.2d
  2022cc:	5ef1b800 	addp	d0, v0.2d
  2022d0:	9e660008 	fmov	x8, d0
  2022d4:	54ffd3e0 	b.eq	201d50 <_ZN4core3str5count14do_count_chars17hae3c2a457455db39E+0x10c>  // b.none
  2022d8:	f27d043f 	tst	x1, #0x18
  2022dc:	54000740 	b.eq	2023c4 <_ZN4core3str5count14do_count_chars17hae3c2a457455db39E+0x780>  // b.none
  2022e0:	6f00e400 	movi	v0.2d, #0x0
  2022e4:	6f00e401 	movi	v1.2d, #0x0
  2022e8:	aa0903ea 	mov	x10, x9
  2022ec:	0f05e7e2 	movi	v2.8b, #0xbf
  2022f0:	6f00e403 	movi	v3.2d, #0x0
  2022f4:	927df029 	and	x9, x1, #0xfffffffffffffff8
  2022f8:	6f00e404 	movi	v4.2d, #0x0
  2022fc:	4e081d00 	mov	v0.d[0], x8
  202300:	52800028 	mov	w8, #0x1                   	// #1
  202304:	4e080d05 	dup	v5.2d, x8
  202308:	cb090148 	sub	x8, x10, x9
  20230c:	8b0a000a 	add	x10, x0, x10
  202310:	aa0a03ed 	mov	x13, x10
  202314:	3940094c 	ldrb	w12, [x10, #2]
  202318:	3940054b 	ldrb	w11, [x10, #1]
  20231c:	38404dae 	ldrb	w14, [x13, #4]!
  202320:	394009af 	ldrb	w15, [x13, #2]
  202324:	39400150 	ldrb	w16, [x10]
  202328:	39400d51 	ldrb	w17, [x10, #3]
  20232c:	d370bd8c 	lsl	x12, x12, #16
  202330:	39401552 	ldrb	w18, [x10, #5]
  202334:	39400dad 	ldrb	w13, [x13, #3]
  202338:	53103def 	lsl	w15, w15, #16
  20233c:	aa0b220b 	orr	x11, x16, x11, lsl #8
  202340:	aa11618c 	orr	x12, x12, x17, lsl #24
  202344:	b1002108 	adds	x8, x8, #0x8
  202348:	2a1221ce 	orr	w14, w14, w18, lsl #8
  20234c:	2a0d61ed 	orr	w13, w15, w13, lsl #24
  202350:	9100214a 	add	x10, x10, #0x8
  202354:	aa0b018b 	orr	x11, x12, x11
  202358:	2a0e01ac 	orr	w12, w13, w14
  20235c:	aa0c816b 	orr	x11, x11, x12, lsl #32
  202360:	9e670166 	fmov	d6, x11
  202364:	0e2234c6 	cmgt	v6.8b, v6.8b, v2.8b
  202368:	2f08a4c6 	uxtl	v6.8h, v6.8b
  20236c:	6f10a4c7 	uxtl2	v7.4s, v6.8h
  202370:	2f10a4c6 	uxtl	v6.4s, v6.4h
  202374:	6f20a4f0 	uxtl2	v16.2d, v7.4s
  202378:	2f20a4d1 	uxtl	v17.2d, v6.2s
  20237c:	6f20a4c6 	uxtl2	v6.2d, v6.4s
  202380:	2f20a4e7 	uxtl	v7.2d, v7.2s
  202384:	4e251e10 	and	v16.16b, v16.16b, v5.16b
  202388:	4e251e31 	and	v17.16b, v17.16b, v5.16b
  20238c:	4e251cc6 	and	v6.16b, v6.16b, v5.16b
  202390:	4e251ce7 	and	v7.16b, v7.16b, v5.16b
  202394:	4ef08484 	add	v4.2d, v4.2d, v16.2d
  202398:	4ee68421 	add	v1.2d, v1.2d, v6.2d
  20239c:	4ef18400 	add	v0.2d, v0.2d, v17.2d
  2023a0:	4ee78463 	add	v3.2d, v3.2d, v7.2d
  2023a4:	54fffb61 	b.ne	202310 <_ZN4core3str5count14do_count_chars17hae3c2a457455db39E+0x6cc>  // b.any
  2023a8:	4ee38400 	add	v0.2d, v0.2d, v3.2d
  2023ac:	4ee48421 	add	v1.2d, v1.2d, v4.2d
  2023b0:	eb09003f 	cmp	x1, x9
  2023b4:	4ee18400 	add	v0.2d, v0.2d, v1.2d
  2023b8:	5ef1b800 	addp	d0, v0.2d
  2023bc:	9e660008 	fmov	x8, d0
  2023c0:	54ffcc80 	b.eq	201d50 <_ZN4core3str5count14do_count_chars17hae3c2a457455db39E+0x10c>  // b.none
  2023c4:	cb09002a 	sub	x10, x1, x9
  2023c8:	8b090009 	add	x9, x0, x9
  2023cc:	38c0152b 	ldrsb	w11, [x9], #1
  2023d0:	3101057f 	cmn	w11, #0x41
  2023d4:	9a88d508 	cinc	x8, x8, gt
  2023d8:	f100054a 	subs	x10, x10, #0x1
  2023dc:	54ffff81 	b.ne	2023cc <_ZN4core3str5count14do_count_chars17hae3c2a457455db39E+0x788>  // b.any
  2023e0:	17fffe5c 	b	201d50 <_ZN4core3str5count14do_count_chars17hae3c2a457455db39E+0x10c>

00000000002023e4 <_ZN4core6result13unwrap_failed17h89589bbb6ce8ba23E>:
  2023e4:	d10143ff 	sub	sp, sp, #0x50
  2023e8:	a9047bfd 	stp	x29, x30, [sp, #64]
  2023ec:	910103fd 	add	x29, sp, #0x40
  2023f0:	910003e8 	mov	x8, sp
  2023f4:	d0ffffe9 	adrp	x9, 200000 <_RNvCs1Y7DaGC1cwg_7___rustc17rust_begin_unwind>
  2023f8:	912fd12a 	add	x10, x9, #0xbf4
  2023fc:	a9008be1 	stp	x1, x2, [sp, #8]
  202400:	d0ffffe9 	adrp	x9, 200000 <_RNvCs1Y7DaGC1cwg_7___rustc17rust_begin_unwind>
  202404:	912fa129 	add	x9, x9, #0xbe8
  202408:	f90003e0 	str	x0, [sp]
  20240c:	90000000 	adrp	x0, 202000 <_ZN4core3str5count14do_count_chars17hae3c2a457455db39E+0x3bc>
  202410:	913d2c00 	add	x0, x0, #0xf4b
  202414:	a901a3e3 	stp	x3, x8, [sp, #24]
  202418:	910043e8 	add	x8, sp, #0x10
  20241c:	910083e1 	add	x1, sp, #0x20
  202420:	aa0403e2 	mov	x2, x4
  202424:	a902a3ea 	stp	x10, x8, [sp, #40]
  202428:	f9001fe9 	str	x9, [sp, #56]
  20242c:	94000027 	bl	2024c8 <_ZN4core9panicking9panic_fmt17hf8c9ba6c2299d6edE>

0000000000202430 <_ZN4core9panicking11panic_const23panic_const_div_by_zero17h97a54d49f416882aE>:
  202430:	a9bf7bfd 	stp	x29, x30, [sp, #-16]!
  202434:	910003fd 	mov	x29, sp
  202438:	aa0003e2 	mov	x2, x0
  20243c:	b0000000 	adrp	x0, 203000 <_ZN4core9panicking9panic_fmt17hf8c9ba6c2299d6edE+0xb38>
  202440:	9129b800 	add	x0, x0, #0xa6e
  202444:	52800661 	mov	w1, #0x33                  	// #51
  202448:	94000020 	bl	2024c8 <_ZN4core9panicking9panic_fmt17hf8c9ba6c2299d6edE>

000000000020244c <_ZN4core9panicking11panic_const24panic_const_add_overflow17h14182d22b10058ceE>:
  20244c:	a9bf7bfd 	stp	x29, x30, [sp, #-16]!
  202450:	910003fd 	mov	x29, sp
  202454:	aa0003e2 	mov	x2, x0
  202458:	b0000000 	adrp	x0, 203000 <_ZN4core9panicking9panic_fmt17hf8c9ba6c2299d6edE+0xb38>
  20245c:	91294800 	add	x0, x0, #0xa52
  202460:	52800721 	mov	w1, #0x39                  	// #57
  202464:	94000019 	bl	2024c8 <_ZN4core9panicking9panic_fmt17hf8c9ba6c2299d6edE>

0000000000202468 <_ZN4core9panicking18panic_bounds_check17h210ff946a1327b86E>:
  202468:	d10103ff 	sub	sp, sp, #0x40
  20246c:	a9037bfd 	stp	x29, x30, [sp, #48]
  202470:	9100c3fd 	add	x29, sp, #0x30
  202474:	910023e8 	add	x8, sp, #0x8
  202478:	f0ffffe9 	adrp	x9, 201000 <_ZN4core3fmt3num3imp52_$LT$impl$u20$core..fmt..Display$u20$for$u20$i32$GT$3fmt17h54e0569a8f948ea9E+0x10>
  20247c:	91017129 	add	x9, x9, #0x5c
  202480:	a90007e0 	stp	x0, x1, [sp]
  202484:	b0000000 	adrp	x0, 203000 <_ZN4core9panicking9panic_fmt17hf8c9ba6c2299d6edE+0xb38>
  202488:	91013800 	add	x0, x0, #0x4e
  20248c:	a90127e8 	stp	x8, x9, [sp, #16]
  202490:	910003e8 	mov	x8, sp
  202494:	910043e1 	add	x1, sp, #0x10
  202498:	a90227e8 	stp	x8, x9, [sp, #32]
  20249c:	9400000b 	bl	2024c8 <_ZN4core9panicking9panic_fmt17hf8c9ba6c2299d6edE>

00000000002024a0 <_ZN4core9panicking18panic_nounwind_fmt17hf9ce0cc5a205ac0eE>:
  2024a0:	d10103ff 	sub	sp, sp, #0x40
  2024a4:	a9037bfd 	stp	x29, x30, [sp, #48]
  2024a8:	9100c3fd 	add	x29, sp, #0x30
  2024ac:	a90087e0 	stp	x0, x1, [sp, #8]
  2024b0:	910023e8 	add	x8, sp, #0x8
  2024b4:	910063e0 	add	x0, sp, #0x18
  2024b8:	a9018fe8 	stp	x8, x3, [sp, #24]
  2024bc:	3900a3ff 	strb	wzr, [sp, #40]
  2024c0:	3900a7e2 	strb	w2, [sp, #41]
  2024c4:	97fff6cf 	bl	200000 <_RNvCs1Y7DaGC1cwg_7___rustc17rust_begin_unwind>

00000000002024c8 <_ZN4core9panicking9panic_fmt17hf8c9ba6c2299d6edE>:
  2024c8:	d10103ff 	sub	sp, sp, #0x40
  2024cc:	a9037bfd 	stp	x29, x30, [sp, #48]
  2024d0:	9100c3fd 	add	x29, sp, #0x30
  2024d4:	910023e8 	add	x8, sp, #0x8
  2024d8:	a90087e0 	stp	x0, x1, [sp, #8]
  2024dc:	910063e0 	add	x0, sp, #0x18
  2024e0:	a9018be8 	stp	x8, x2, [sp, #24]
  2024e4:	52800028 	mov	w8, #0x1                   	// #1
  2024e8:	790053e8 	strh	w8, [sp, #40]
  2024ec:	97fff6c5 	bl	200000 <_RNvCs1Y7DaGC1cwg_7___rustc17rust_begin_unwind>
